EXPORTS
    _ZN4cvis10CVHeatPlot6updateERNS_7CVEventERKN2sf7Vector2IfEE @1
    _ZN4cvis10CVHeatPlotC1EPNS_6CVViewERKN2sf7Vector2IfEERKfS9_RKNS3_5ColorESC_SC_S9_RKNSt7__cxx1112basic_stringIcSt11char_traitsIcESaIcEEESK_RKhSM_ @2
    _ZN4cvis10CVHeatPlotC2EPNS_6CVViewERKN2sf7Vector2IfEERKfS9_RKNS3_5ColorESC_SC_S9_RKNSt7__cxx1112basic_stringIcSt11char_traitsIcESaIcEEESK_RKhSM_ @3
    _ZN4cvis10CVLinePlot6updateERNS_7CVEventERKN2sf7Vector2IfEE @4
    _ZN4cvis10CVLinePlotC1EPNS_6CVViewERKN2sf7Vector2IfEERKfS9_RKNS3_5ColorESC_SC_S9_RKNSt7__cxx1112basic_stringIcSt11char_traitsIcESaIcEEESK_RKhSM_ @5
    _ZN4cvis10CVLinePlotC2EPNS_6CVViewERKN2sf7Vector2IfEERKfS9_RKNS3_5ColorESC_SC_S9_RKNSt7__cxx1112basic_stringIcSt11char_traitsIcESaIcEEESK_RKhSM_ @6
    _ZN4cvis10CVMapPanel10removeZoneERKNSt7__cxx1112basic_stringIcSt11char_traitsIcESaIcEEE @7
    _ZN4cvis10CVMapPanel10removeZoneERKj @8
    _ZN4cvis10CVMapPanel10resetShiftEv @9
    _ZN4cvis10CVMapPanel10updateZoneERKNSt7__cxx1112basic_stringIcSt11char_traitsIcESaIcEEERKN2sf4RectIiEE @10
    _ZN4cvis10CVMapPanel10updateZoneERKNSt7__cxx1112basic_stringIcSt11char_traitsIcESaIcEEERKN2sf7Vector2IiEE @11
    _ZN4cvis10CVMapPanel10updateZoneERKjRKN2sf4RectIiEE @12
    _ZN4cvis10CVMapPanel10updateZoneERKjRKN2sf7Vector2IiEE @13
    _ZN4cvis10CVMapPanel11setPositionERKN2sf7Vector2IfEE @14
    _ZN4cvis10CVMapPanel11setPositionERKfS2_ @15
    _ZN4cvis10CVMapPanel12setBaseColorERKN2sf5ColorE @16
    _ZN4cvis10CVMapPanel12setRowSelectERKb @17
    _ZN4cvis10CVMapPanel12setZoneColorERKNSt7__cxx1112basic_stringIcSt11char_traitsIcESaIcEEERKN2sf5ColorE @18
    _ZN4cvis10CVMapPanel12setZoneColorERKjRKN2sf5ColorE @19
    _ZN4cvis10CVMapPanel12setZoneImageERKNSt7__cxx1112basic_stringIcSt11char_traitsIcESaIcEEERKN2sf7TextureE @20
    _ZN4cvis10CVMapPanel12setZoneImageERKjRKN2sf7TextureE @21
    _ZN4cvis10CVMapPanel13captureCoordsERN2sf4RectIiEE @22
    _ZN4cvis10CVMapPanel13extraInfoTextEv @23
    _ZN4cvis10CVMapPanel13showExtraInfoERKb @24
    _ZN4cvis10CVMapPanel15setColumnSelectERKb @25
    _ZN4cvis10CVMapPanel4drawEPN2sf12RenderTargetE @26
    _ZN4cvis10CVMapPanel4moveERKN2sf7Vector2IfEE @27
    _ZN4cvis10CVMapPanel4moveERKfS2_ @28
    _ZN4cvis10CVMapPanel5clearEv @29
    _ZN4cvis10CVMapPanel6updateERNS_7CVEventERKN2sf7Vector2IfEE @30
    _ZN4cvis10CVMapPanel7addZoneERKNSt7__cxx1112basic_stringIcSt11char_traitsIcESaIcEEERKN2sf5ColorERKNS9_4RectIiEE @31
    _ZN4cvis10CVMapPanel7setZoomEfN2sf7Vector2IfEE @32
    _ZN4cvis10CVMapPanel8setTitleERKNSt7__cxx1112basic_stringIcSt11char_traitsIcESaIcEEE @33
    _ZN4cvis10CVMapPanel8shiftMapERKN2sf7Vector2IfEE @34
    _ZN4cvis10CVMapPanel9resetZoomEv @35
    _ZN4cvis10CVMapPanel9setCenterERKN2sf7Vector2IiEE @36
    _ZN4cvis10CVMapPanel9setCoordsERKN2sf4RectIiEERKb @37
    _ZN4cvis10CVMapPanel9titleTextEv @38
    _ZN4cvis10CVMapPanelC1EPNS_6CVViewERKNSt7__cxx1112basic_stringIcSt11char_traitsIcESaIcEEERKN2sf5ColorERKNSB_7Vector2IfEERKbSI_ @39
    _ZN4cvis10CVMapPanelC2EPNS_6CVViewERKNSt7__cxx1112basic_stringIcSt11char_traitsIcESaIcEEERKN2sf5ColorERKNSB_7Vector2IfEERKbSI_ @40
    _ZN4cvis10CVSchedule10getOverlapERKNS_16CVCalendarRecordE @41
    _ZN4cvis10CVSchedule10getOverlapERKS0_ @42
    _ZN4cvis10CVSchedule11setLocationERKNSt7__cxx1112basic_stringIcSt11char_traitsIcESaIcEEES8_ @43
    _ZN4cvis10CVSchedule4loadERKNSt7__cxx1112basic_stringIcSt11char_traitsIcESaIcEEE @44
    _ZN4cvis10CVSchedule9setLegendERKNSt7__cxx1112basic_stringIcSt11char_traitsIcESaIcEEERKN2sf5ColorE @45
    _ZN4cvis10CVScheduleC1Ev @46
    _ZN4cvis10CVScheduleC2Ev @47
    _ZN4cvis10CVTitleBar12setGlowColorERKN2sf5ColorE @48
    _ZN4cvis10CVTitleBar12setIconColorERKN2sf5ColorE @49
    _ZN4cvis10CVTitleBar12setMouseGlowERKbRKNSt7__cxx1112basic_stringIcSt11char_traitsIcESaIcEEE @50
    _ZN4cvis10CVTitleBar14setButtonColorERKN2sf5ColorE @51
    _ZN4cvis10CVTitleBar4drawEPN2sf12RenderTargetE @52
    _ZN4cvis10CVTitleBar5alignERKh @53
    _ZN4cvis10CVTitleBar6updateERNS_7CVEventERKN2sf7Vector2IfEE @54
    _ZN4cvis10CVTitleBarC1EPNS_6CVViewERKhRKfS6_RKNS_9TextEntryERKNSt7__cxx1112basic_stringIcSt11char_traitsIcESaIcEEERKN2sf5ColorESL_S6_ @55
    _ZN4cvis10CVTitleBarC2EPNS_6CVViewERKhRKfS6_RKNS_9TextEntryERKNSt7__cxx1112basic_stringIcSt11char_traitsIcESaIcEEERKN2sf5ColorESL_S6_ @56
    _ZN4cvis10CVTitleBarD0Ev @57
    _ZN4cvis10CVTitleBarD1Ev @58
    _ZN4cvis10CVTitleBarD2Ev @59
    _ZN4cvis10ColorTheme5eraseEN9__gnu_cxx17__normal_iteratorIPN2sf5ColorESt6vectorIS4_SaIS4_EEEE @60
    _ZN4cvis10ColorTheme6insertEN9__gnu_cxx17__normal_iteratorIPN2sf5ColorESt6vectorIS4_SaIS4_EEEERKS4_ @61
    _ZN4cvis10ColorTheme9push_backERKN2sf5ColorE @62
    _ZN4cvis10ColorThemeC1ERKSt6vectorIN2sf5ColorESaIS3_EE @63
    _ZN4cvis10ColorThemeC2ERKSt6vectorIN2sf5ColorESaIS3_EE @64
    _ZN4cvis10ColorThemeaSERKSt6vectorIN2sf5ColorESaIS3_EE @65
    _ZN4cvis11CVGridPanel14getGridElementERKNSt7__cxx1112basic_stringIcSt11char_traitsIcESaIcEEE @66
    _ZN4cvis11CVGridPanel15addPanelElementEPNS_9CVElementERKNSt7__cxx1112basic_stringIcSt11char_traitsIcESaIcEEERKj @67
    _ZN4cvis11CVGridPanel15setGridItemSizeERKN2sf7Vector2IfEE @68
    _ZN4cvis11CVGridPanel15setOuterPaddingERKf @69
    _ZN4cvis11CVGridPanel18removePanelElementEPNS_9CVElementE @70
    _ZN4cvis11CVGridPanel18setGridItemPaddingERKf @71
    _ZN4cvis11CVGridPanelC1EPNS_6CVViewERKNSt7__cxx1112basic_stringIcSt11char_traitsIcESaIcEEERKN2sf7Vector2IfEESF_RKyRKNSB_5ColorESK_RKf @72
    _ZN4cvis11CVGridPanelC2EPNS_6CVViewERKNSt7__cxx1112basic_stringIcSt11char_traitsIcESaIcEEERKN2sf7Vector2IfEESF_RKyRKNSB_5ColorESK_RKf @73
    _ZN4cvis11CVListPanel11fitElementsERKbS2_ @74
    _ZN4cvis11CVListPanel11setPositionERKN2sf7Vector2IfEE @75
    _ZN4cvis11CVListPanel12addTextEntryERKNSt7__cxx1112basic_stringIcSt11char_traitsIcESaIcEEERKj @76
    _ZN4cvis11CVListPanel12setSelectionEPNS_9CVElementERKb @77
    _ZN4cvis11CVListPanel12setSelectionERKNSt7__cxx1112basic_stringIcSt11char_traitsIcESaIcEEERKb @78
    _ZN4cvis11CVListPanel14addTextEntriesERKSt6vectorINSt7__cxx1112basic_stringIcSt11char_traitsIcESaIcEEESaIS7_EE @79
    _ZN4cvis11CVListPanel14clearSelectionEv @80
    _ZN4cvis11CVListPanel14setDragAndDropERKb @81
    _ZN4cvis11CVListPanel14setListPaddingERKf @82
    _ZN4cvis11CVListPanel14setTextEntriesERKSt6vectorINSt7__cxx1112basic_stringIcSt11char_traitsIcESaIcEEESaIS7_EE @83
    _ZN4cvis11CVListPanel15addPanelElementEPNS_9CVElementERKNSt7__cxx1112basic_stringIcSt11char_traitsIcESaIcEEERKj @84
    _ZN4cvis11CVListPanel15removeTextEntryERKj @85
    _ZN4cvis11CVListPanel15setInnerPaddingERKf @86
    _ZN4cvis11CVListPanel15setOuterPaddingERKf @87
    _ZN4cvis11CVListPanel15toggleSelectionEPNS_9CVElementE @88
    _ZN4cvis11CVListPanel15toggleSelectionERKNSt7__cxx1112basic_stringIcSt11char_traitsIcESaIcEEE @89
    _ZN4cvis11CVListPanel16setListItemColorERKN2sf5ColorE @90
    _ZN4cvis11CVListPanel18removePanelElementEPNS_9CVElementE @91
    _ZN4cvis11CVListPanel18removePanelElementERKj @92
    _ZN4cvis11CVListPanel18setSelectionStatusERKb @93
    _ZN4cvis11CVListPanel19setScrollBarPaddingERKf @94
    _ZN4cvis11CVListPanel20setListHighlightableERKb @95
    _ZN4cvis11CVListPanel21setListHighlightColorERKN2sf5ColorE @96
    _ZN4cvis11CVListPanel4drawEPN2sf12RenderTargetE @97
    _ZN4cvis11CVListPanel4moveERKN2sf7Vector2IfEE @98
    _ZN4cvis11CVListPanel6updateERNS_7CVEventERKN2sf7Vector2IfEE @99
    _ZN4cvis11CVListPanelC1EPNS_6CVViewENSt7__cxx1112basic_stringIcSt11char_traitsIcESaIcEEEN2sf5ColorERKNS9_7Vector2IfEEbSE_ @100
    _ZN4cvis11CVListPanelC2EPNS_6CVViewENSt7__cxx1112basic_stringIcSt11char_traitsIcESaIcEEEN2sf5ColorERKNS9_7Vector2IfEEbSE_ @101
    _ZN4cvis11CVNodePanel11setHoverTagERKb @102
    _ZN4cvis11CVNodePanel11setPositionERKN2sf7Vector2IfEE @103
    _ZN4cvis11CVNodePanel12setNodeAlphaERKh @104
    _ZN4cvis11CVNodePanel12updateBoundsEv @105
    _ZN4cvis11CVNodePanel13setNodeRadiusERKf @106
    _ZN4cvis11CVNodePanel13updatePhysicsERNS_7CVEventERKN2sf7Vector2IfEE @107
    _ZN4cvis11CVNodePanel14logInteractionERKNSt7__cxx1112basic_stringIcSt11char_traitsIcESaIcEEE @108
    _ZN4cvis11CVNodePanel15addPanelElementEPNS_9CVElementERKNSt7__cxx1112basic_stringIcSt11char_traitsIcESaIcEEERKj @109
    _ZN4cvis11CVNodePanel17getConnectedNodesERSt6vectorIPNS_9CVElementESaIS3_EE @110
    _ZN4cvis11CVNodePanel18captureInteractionEPNSt7__cxx1112basic_stringIcSt11char_traitsIcESaIcEEE @111
    _ZN4cvis11CVNodePanel18removePanelElementERKj @112
    _ZN4cvis11CVNodePanel4drawEPN2sf12RenderTargetE @113
    _ZN4cvis11CVNodePanel4moveERKN2sf7Vector2IfEE @114
    _ZN4cvis11CVNodePanel6updateERNS_7CVEventERKN2sf7Vector2IfEE @115
    _ZN4cvis11CVNodePanel7setNodeERKi @116
    _ZN4cvis11CVNodePanel9setCenterERNS_9CVElementE @117
    _ZN4cvis11CVNodePanelC1EPNS_6CVViewENSt7__cxx1112basic_stringIcSt11char_traitsIcESaIcEEEN2sf5ColorERKNS9_7Vector2IfEEbSE_ @118
    _ZN4cvis11CVNodePanelC2EPNS_6CVViewENSt7__cxx1112basic_stringIcSt11char_traitsIcESaIcEEEN2sf5ColorERKNS9_7Vector2IfEEbSE_ @119
    _ZN4cvis11CVPlotPanel11select_tagsERKSt6vectorINSt7__cxx1112basic_stringIcSt11char_traitsIcESaIcEEESaIS7_EE @120
    _ZN4cvis11CVPlotPanel11setPositionERKN2sf7Vector2IfEE @121
    _ZN4cvis11CVPlotPanel14select_indicesERKSt6vectorIjSaIjEE @122
    _ZN4cvis11CVPlotPanel21getAllSelectedIndicesEv @123
    _ZN4cvis11CVPlotPanel24getCommonSelectedIndicesEv @124
    _ZN4cvis11CVPlotPanel4drawEPN2sf12RenderTargetE @125
    _ZN4cvis11CVPlotPanel4moveERKN2sf7Vector2IfEE @126
    _ZN4cvis11CVPlotPanel6updateERNS_7CVEventERKN2sf7Vector2IfEE @127
    _ZN4cvis11CVPlotPanelC1EPNS_6CVViewENSt7__cxx1112basic_stringIcSt11char_traitsIcESaIcEEEN2sf5ColorERKSA_RKNS9_7Vector2IfEERKbSG_ @128
    _ZN4cvis11CVPlotPanelC2EPNS_6CVViewENSt7__cxx1112basic_stringIcSt11char_traitsIcESaIcEEEN2sf5ColorERKSA_RKNS9_7Vector2IfEERKbSG_ @129
    _ZN4cvis11CVScrollBar11setPositionERKN2sf7Vector2IfEE @130
    _ZN4cvis11CVScrollBar15setAnchorPointsERKN2sf7Vector2IfEES5_ @131
    _ZN4cvis11CVScrollBar15setScrollOffsetERKf @132
    _ZN4cvis11CVScrollBar19calcHighlightBoundsEv @133
    _ZN4cvis11CVScrollBar4moveERKN2sf7Vector2IfEE @134
    _ZN4cvis11CVScrollBar6scrollERKf @135
    _ZN4cvis11CVScrollBar6updateERNS_7CVEventERKN2sf7Vector2IfEE @136
    _ZN4cvis11CVScrollBarC1EPNS_6CVViewERKN2sf7Vector2IfEES7_RKfS9_RKNS3_5ColorESC_S9_S9_RKh @137
    _ZN4cvis11CVScrollBarC2EPNS_6CVViewERKN2sf7Vector2IfEES7_RKfS9_RKNS3_5ColorESC_S9_S9_RKh @138
    _ZN4cvis11CVScrollBarD0Ev @139
    _ZN4cvis11CVScrollBarD1Ev @140
    _ZN4cvis11CVScrollBarD2Ev @141
    _ZN4cvis11CVSliderBar10clearTitleEv @142
    _ZN4cvis11CVSliderBar11setMaxValueERKf @143
    _ZN4cvis11CVSliderBar11setMinValueERKf @144
    _ZN4cvis11CVSliderBar11setPositionERKN2sf7Vector2IfEE @145
    _ZN4cvis11CVSliderBar11updateMarksEv @146
    _ZN4cvis11CVSliderBar12setTextColorERKN2sf5ColorE @147
    _ZN4cvis11CVSliderBar12setTickColorERKN2sf5ColorE @148
    _ZN4cvis11CVSliderBar12setTickMarksERKb @149
    _ZN4cvis11CVSliderBar12updateSliderEv @150
    _ZN4cvis11CVSliderBar13setSliderMaskERKNSt7__cxx1112basic_stringIcSt11char_traitsIcESaIcEEERKN2sf5ColorE @151
    _ZN4cvis11CVSliderBar13setSliderSizeERKN2sf7Vector2IfEE @152
    _ZN4cvis11CVSliderBar15setCurrentValueERKf @153
    _ZN4cvis11CVSliderBar16setSliderElementEPNS_9CVElementE @154
    _ZN4cvis11CVSliderBar17setIncrementCountERKy @155
    _ZN4cvis11CVSliderBar17setSliderRoundingERKfRKyRKSt6vectorIbSaIbEE @156
    _ZN4cvis11CVSliderBar17usePositionLabelsERKb @157
    _ZN4cvis11CVSliderBar23setPositionLabelDensityERKy @158
    _ZN4cvis11CVSliderBar4drawEPN2sf12RenderTargetE @159
    _ZN4cvis11CVSliderBar4moveERKN2sf7Vector2IfEE @160
    _ZN4cvis11CVSliderBar6updateERNS_7CVEventERKN2sf7Vector2IfEE @161
    _ZN4cvis11CVSliderBar7setSizeERKN2sf7Vector2IfEE @162
    _ZN4cvis11CVSliderBar8setTitleERKNSt7__cxx1112basic_stringIcSt11char_traitsIcESaIcEEERKj @163
    _ZN4cvis11CVSliderBarC1EPNS_6CVViewERKNSt7__cxx1112basic_stringIcSt11char_traitsIcESaIcEEERKN2sf7Vector2IfEESF_RKfSH_SH_RKyRKNSB_5ColorESM_SM_SM_SH_PNS_9CVElementE @164
    _ZN4cvis11CVSliderBarC2EPNS_6CVViewERKNSt7__cxx1112basic_stringIcSt11char_traitsIcESaIcEEERKN2sf7Vector2IfEESF_RKfSH_SH_RKyRKNSB_5ColorESM_SM_SM_SH_PNS_9CVElementE @165
    _ZN4cvis11CVTypePanel11enable_editERKj @166
    _ZN4cvis11CVTypePanel11enable_editEv @167
    _ZN4cvis11CVTypePanel11setPositionERKN2sf7Vector2IfEE @168
    _ZN4cvis11CVTypePanel11setTextSizeERKj @169
    _ZN4cvis11CVTypePanel12disable_editERKj @170
    _ZN4cvis11CVTypePanel12disable_editEv @171
    _ZN4cvis11CVTypePanel12hide_marginsEv @172
    _ZN4cvis11CVTypePanel12setHighlightERKSt6vectorINSt7__cxx1112basic_stringIcSt11char_traitsIcESaIcEEESaIS7_EE @173
    _ZN4cvis11CVTypePanel12setTextColorERKN2sf5ColorE @174
    _ZN4cvis11CVTypePanel12show_marginsEv @175
    _ZN4cvis11CVTypePanel13arrange_mediaERKN2sf4RectIfEE @176
    _ZN4cvis11CVTypePanel13arrange_mediaEv @177
    _ZN4cvis11CVTypePanel14addTextElementERKN2sf7Vector2IfEENS_9TextEntryE @178
    _ZN4cvis11CVTypePanel14set_top_marginERKf @179
    _ZN4cvis11CVTypePanel15set_left_marginERKf @180
    _ZN4cvis11CVTypePanel16set_right_marginERKf @181
    _ZN4cvis11CVTypePanel17set_bottom_marginERKf @182
    _ZN4cvis11CVTypePanel21setTextElementPaddingERKjRKf @183
    _ZN4cvis11CVTypePanel22setHighlightableStatusERKb @184
    _ZN4cvis11CVTypePanel4drawEPN2sf12RenderTargetE @185
    _ZN4cvis11CVTypePanel4moveERKN2sf7Vector2IfEE @186
    _ZN4cvis11CVTypePanel5clearEv @187
    _ZN4cvis11CVTypePanel6updateERNS_7CVEventERKN2sf7Vector2IfEE @188
    _ZN4cvis11CVTypePanel7setSizeERKN2sf7Vector2IfEE @189
    _ZN4cvis11CVTypePanel7setTextERKSt6vectorINSt7__cxx1112basic_stringIcSt11char_traitsIcESaIcEEESaIS7_EE @190
    _ZN4cvis11CVTypePanel7setTextERKjRKNSt7__cxx1112basic_stringIcSt11char_traitsIcESaIcEEE @191
    _ZN4cvis11CVTypePanelC1EPNS_6CVViewERKNS_9TextEntryERKNSt7__cxx1112basic_stringIcSt11char_traitsIcESaIcEEERKN2sf5ColorERKNSE_7Vector2IfEERKSt6vectorIfSaIfEESL_ @192
    _ZN4cvis11CVTypePanelC2EPNS_6CVViewERKNS_9TextEntryERKNSt7__cxx1112basic_stringIcSt11char_traitsIcESaIcEEERKN2sf5ColorERKNSE_7Vector2IfEERKSt6vectorIfSaIfEESL_ @193
    _ZN4cvis11CVTypePanelD0Ev @194
    _ZN4cvis11CVTypePanelD1Ev @195
    _ZN4cvis11CVTypePanelD2Ev @196
    _ZN4cvis11CVViewPanel11fitElementsERKbS2_ @197
    _ZN4cvis11CVViewPanel11setPositionERKN2sf7Vector2IfEE @198
    _ZN4cvis11CVViewPanel12setPanelSizeERKN2sf7Vector2IfEE @199
    _ZN4cvis11CVViewPanel12updateBoundsEv @200
    _ZN4cvis11CVViewPanel12updatePanelsERNS_7CVEventERKN2sf7Vector2IfEE @201
    _ZN4cvis11CVViewPanel13elementExistsERKNSt7__cxx1112basic_stringIcSt11char_traitsIcESaIcEEE @202
    _ZN4cvis11CVViewPanel14setActiveStateERKb @203
    _ZN4cvis11CVViewPanel15addPanelElementEPNS_9CVElementERKNSt7__cxx1112basic_stringIcSt11char_traitsIcESaIcEEERKj @204
    _ZN4cvis11CVViewPanel16getTaggedElementERKNSt7__cxx1112basic_stringIcSt11char_traitsIcESaIcEEE @205
    _ZN4cvis11CVViewPanel17setHighlightColorERKN2sf5ColorE @206
    _ZN4cvis11CVViewPanel18detachPanelElementEPKNS_9CVElementE @207
    _ZN4cvis11CVViewPanel18removePanelElementEPNS_9CVElementE @208
    _ZN4cvis11CVViewPanel18removePanelElementERKNSt7__cxx1112basic_stringIcSt11char_traitsIcESaIcEEE @209
    _ZN4cvis11CVViewPanel18removePanelElementERKj @210
    _ZN4cvis11CVViewPanel19getOwnedElementByIDERKNSt7__cxx1112basic_stringIcSt11char_traitsIcESaIcEEE @211
    _ZN4cvis11CVViewPanel22setHighlightableStatusERKb @212
    _ZN4cvis11CVViewPanel4moveERKN2sf7Vector2IfEE @213
    _ZN4cvis11CVViewPanel5clearEv @214
    _ZN4cvis11CVViewPanel6updateERNS_7CVEventERKN2sf7Vector2IfEE @215
    _ZN4cvis11CVViewPanel7setSizeERKN2sf7Vector2IfEE @216
    _ZN4cvis11CVViewPanel8setFocusERKb @217
    _ZN4cvis11CVViewPanel9setExpandERKb @218
    _ZN4cvis11CVViewPanelC1EPNS_6CVViewENSt7__cxx1112basic_stringIcSt11char_traitsIcESaIcEEEN2sf5ColorERKNS9_7Vector2IfEEbSE_ @219
    _ZN4cvis11CVViewPanelC2EPNS_6CVViewENSt7__cxx1112basic_stringIcSt11char_traitsIcESaIcEEEN2sf5ColorERKNS9_7Vector2IfEEbSE_ @220
    _ZN4cvis11CVViewPanelD0Ev @221
    _ZN4cvis11CVViewPanelD1Ev @222
    _ZN4cvis11CVViewPanelD2Ev @223
    _ZN4cvis11FontManager7addFontEPKvRKyRKNSt7__cxx1112basic_stringIcSt11char_traitsIcESaIcEEE @224
    _ZN4cvis11FontManager7addFontERKNSt7__cxx1112basic_stringIcSt11char_traitsIcESaIcEEES8_ @225
    _ZN4cvis11FontManagerD1Ev @226
    _ZN4cvis11FontManagerD2Ev @227
    _ZN4cvis11alignShapesERSt6vectorIPN2sf5ShapeESaIS3_EES0_INS1_7Vector2IfEESaIS8_EE @228
    _ZN4cvis11textToColorERKNSt7__cxx1112basic_stringIcSt11char_traitsIcESaIcEEE @229
    _ZN4cvis12CVConsoleLogC1EPNS_6CVViewERKN2sf7Vector2IfEERKfS9_RKNS_9TextEntryERKNS3_5ColorESF_S9_RKhRKNSt7__cxx1112basic_stringIcSt11char_traitsIcESaIcEEEPNS_9CVTypeBoxE @230
    _ZN4cvis12CVConsoleLogC2EPNS_6CVViewERKN2sf7Vector2IfEERKfS9_RKNS_9TextEntryERKNS3_5ColorESF_S9_RKhRKNSt7__cxx1112basic_stringIcSt11char_traitsIcESaIcEEEPNS_9CVTypeBoxE @231
    _ZN4cvis12CVDropTarget10HandleDropEP7HDROP__ @232
    _ZN4cvis12CVDropTarget14QueryInterfaceERK5_GUIDPPv @233
    _ZN4cvis12CVDropTarget14getWaitingDataERSt6vectorINSt7__cxx1112basic_stringIcSt11char_traitsIcESaIcEEESaIS7_EE @234
    _ZN4cvis12CVDropTarget4DropEP11IDataObjectm7_POINTLPm @235
    _ZN4cvis12CVDropTarget6AddRefEv @236
    _ZN4cvis12CVDropTarget7ReleaseEv @237
    _ZN4cvis12CVDropTarget8DragOverEm7_POINTLPm @238
    _ZN4cvis12CVDropTarget9DragEnterEP11IDataObjectm7_POINTLPm @239
    _ZN4cvis12CVDropTarget9DragLeaveEv @240
    _ZN4cvis12CVDropTargetC1EPNS_6CVViewE @241
    _ZN4cvis12CVDropTargetC2EPNS_6CVViewE @242
    _ZN4cvis12CVTablePanel10expandColsERKi @243
    _ZN4cvis12CVTablePanel10expandRowsERKi @244
    _ZN4cvis12CVTablePanel11setPositionERKN2sf7Vector2IfEE @245
    _ZN4cvis12CVTablePanel11setPositionERKfS2_ @246
    _ZN4cvis12CVTablePanel12updateExpandEv @247
    _ZN4cvis12CVTablePanel16setCellFillColorERKN2sf5ColorE @248
    _ZN4cvis12CVTablePanel19setCellOutlineColorERKN2sf5ColorE @249
    _ZN4cvis12CVTablePanel20setCellHighlightableERKb @250
    _ZN4cvis12CVTablePanel21setCellHighlightColorERKN2sf5ColorE @251
    _ZN4cvis12CVTablePanel4drawEPN2sf12RenderTargetE @252
    _ZN4cvis12CVTablePanel4moveERKN2sf7Vector2IfEE @253
    _ZN4cvis12CVTablePanel4moveERKfS2_ @254
    _ZN4cvis12CVTablePanel5clearEv @255
    _ZN4cvis12CVTablePanel6updateERNS_7CVEventERKN2sf7Vector2IfEE @256
    _ZN4cvis12CVTablePanel7addCellERKNSt7__cxx1112basic_stringIcSt11char_traitsIcESaIcEEERKjSA_ @257
    _ZN4cvis12CVTablePanel9insertColERKj @258
    _ZN4cvis12CVTablePanel9insertRowERKj @259
    _ZN4cvis12CVTablePanel9removeColERKj @260
    _ZN4cvis12CVTablePanel9removeRowERKj @261
    _ZN4cvis12CVTablePanelC1EPNS_6CVViewERKNSt7__cxx1112basic_stringIcSt11char_traitsIcESaIcEEERKN2sf5ColorERKNSB_7Vector2IfEERKbSI_ @262
    _ZN4cvis12CVTablePanelC2EPNS_6CVViewERKNSt7__cxx1112basic_stringIcSt11char_traitsIcESaIcEEERKN2sf5ColorERKNSB_7Vector2IfEERKbSI_ @263
    _ZN4cvis12CVTextLogMsgC1EPNS_6CVViewERKNS_9TextEntryE @264
    _ZN4cvis12CVTextLogMsgC2EPNS_6CVViewERKNS_9TextEntryE @265
    _ZN4cvis12ImageManager10addTextureENSt7__cxx1112basic_stringIcSt11char_traitsIcESaIcEEES6_ @266
    _ZN4cvis12ImageManager10addTextureEPKvRKyRKNSt7__cxx1112basic_stringIcSt11char_traitsIcESaIcEEE @267
    _ZN4cvis12ImageManager8addImageENSt7__cxx1112basic_stringIcSt11char_traitsIcESaIcEEES6_ @268
    _ZN4cvis12changeRecordERNS_10CVScheduleERKN6hyperC9TimePointES5_RKNS2_10time_scaleE @269
    _ZN4cvis12changeRecordERNS_10CVScheduleERKN6hyperC9TimePointES5_S5_RKNS2_10time_scaleE @270
    _ZN4cvis12changeRecordERNS_10CVScheduleERKNSt7__cxx1112basic_stringIcSt11char_traitsIcESaIcEEERKN6hyperC9TimePointE @271
    _ZN4cvis12changeRecordERNS_10CVScheduleERKNSt7__cxx1112basic_stringIcSt11char_traitsIcESaIcEEERKN6hyperC9TimePointESD_ @272
    _ZN4cvis12gaussianBlurERN2sf5ImageERKi @273
    _ZN4cvis12internal_arcERKN2sf7Vector2IfEERKNS0_4RectIfEERKfSA_ @274
    _ZN4cvis12removeRecordERNS_10CVScheduleERKN6hyperC9TimePointE @275
    _ZN4cvis12removeRecordERNS_10CVScheduleERKNSt7__cxx1112basic_stringIcSt11char_traitsIcESaIcEEE @276
    _ZN4cvis13CVButtonPanel12organizeGridEv @277
    _ZN4cvis13CVButtonPanel12setHighlightERKN2sf7Vector2IiEE @278
    _ZN4cvis13CVButtonPanel14clearHighlightEv @279
    _ZN4cvis13CVButtonPanel14getInteractionB5cxx11Ev @280
    _ZN4cvis13CVButtonPanel14setSpriteColorERKN2sf5ColorE @281
    _ZN4cvis13CVButtonPanel15setInnerPaddingERKf @282
    _ZN4cvis13CVButtonPanel15setOuterPaddingERKf @283
    _ZN4cvis13CVButtonPanel16addButtonToGroupERKN2sf7Vector2IiEERKNSt7__cxx1112basic_stringIcSt11char_traitsIcESaIcEEE @284
    _ZN4cvis13CVButtonPanel17createButtonGroupERKNSt7__cxx1112basic_stringIcSt11char_traitsIcESaIcEEE @285
    _ZN4cvis13CVButtonPanel17removeButtonGroupERKNSt7__cxx1112basic_stringIcSt11char_traitsIcESaIcEEE @286
    _ZN4cvis13CVButtonPanel17setButtonRoundingERKfRKyRKSt6vectorIbSaIbEE @287
    _ZN4cvis13CVButtonPanel18setButtonFillColorERKN2sf5ColorE @288
    _ZN4cvis13CVButtonPanel20setButtonSpriteScaleERKf @289
    _ZN4cvis13CVButtonPanel21removeButtonFromGroupERKN2sf7Vector2IiEERKNSt7__cxx1112basic_stringIcSt11char_traitsIcESaIcEEE @290
    _ZN4cvis13CVButtonPanel21setButtonOutlineColorERKN2sf5ColorE @291
    _ZN4cvis13CVButtonPanel22clearSelectedFromGroupERKNSt7__cxx1112basic_stringIcSt11char_traitsIcESaIcEEE @292
    _ZN4cvis13CVButtonPanel25setButtonOutlineThicknessERKf @293
    _ZN4cvis13CVButtonPanel4drawEPN2sf12RenderTargetE @294
    _ZN4cvis13CVButtonPanel6updateERNS_7CVEventERKN2sf7Vector2IfEE @295
    _ZN4cvis13CVButtonPanel7setGridERKN2sf7Vector2IiEE @296
    _ZN4cvis13CVButtonPanel7setGridERKjS2_ @297
    _ZN4cvis13CVButtonPanel9addButtonERKN2sf7Vector2IiEERKNSt7__cxx1112basic_stringIcSt11char_traitsIcESaIcEEESD_SD_RKjSF_ @298
    _ZN4cvis13CVButtonPanel9getButtonERKN2sf7Vector2IiEE @299
    _ZN4cvis13CVButtonPanelC1EPNS_6CVViewENSt7__cxx1112basic_stringIcSt11char_traitsIcESaIcEEEN2sf5ColorERKNS9_7Vector2IfEEbSE_ @300
    _ZN4cvis13CVButtonPanelC2EPNS_6CVViewENSt7__cxx1112basic_stringIcSt11char_traitsIcESaIcEEEN2sf5ColorERKNS9_7Vector2IfEEbSE_ @301
    _ZN4cvis13CVDropDownBox10toggleMenuEv @302
    _ZN4cvis13CVDropDownBox11addMenuItemERKNSt7__cxx1112basic_stringIcSt11char_traitsIcESaIcEEE @303
    _ZN4cvis13CVDropDownBox11setSelectedERKNSt7__cxx1112basic_stringIcSt11char_traitsIcESaIcEEE @304
    _ZN4cvis13CVDropDownBox11setSelectedERKj @305
    _ZN4cvis13CVDropDownBox6updateERNS_7CVEventERKN2sf7Vector2IfEE @306
    _ZN4cvis13CVDropDownBox8openMenuEv @307
    _ZN4cvis13CVDropDownBox9closeMenuEv @308
    _ZN4cvis13CVDropDownBoxC1EPNS_6CVViewERKNSt7__cxx1112basic_stringIcSt11char_traitsIcESaIcEEERKSt6vectorIS8_SaIS8_EERKN2sf7Vector2IfEESK_RKNS_9TextEntryERKNSG_5ColorESQ_SQ_RKfSS_SS_SA_ @309
    _ZN4cvis13CVDropDownBoxC2EPNS_6CVViewERKNSt7__cxx1112basic_stringIcSt11char_traitsIcESaIcEEERKSt6vectorIS8_SaIS8_EERKN2sf7Vector2IfEESK_RKNS_9TextEntryERKNSG_5ColorESQ_SQ_RKfSS_SS_SA_ @310
    _ZN4cvis13CVNetworkEdge12apply_tetherERKfS2_S2_ @311
    _ZN4cvis13CVNetworkEdge12setLineWidthERKf @312
    _ZN4cvis13CVNetworkEdge4drawEPN2sf12RenderTargetE @313
    _ZN4cvis13CVNetworkEdge6updateEv @314
    _ZN4cvis13CVNetworkEdgeC1ERNS_13CVNetworkNodeES2_RKNSt7__cxx1112basic_stringIcSt11char_traitsIcESaIcEEERKfRKN2sf5ColorE @315
    _ZN4cvis13CVNetworkEdgeC2ERNS_13CVNetworkNodeES2_RKNSt7__cxx1112basic_stringIcSt11char_traitsIcESaIcEEERKfRKN2sf5ColorE @316
    _ZN4cvis13CVNetworkNode10align_textERKj @317
    _ZN4cvis13CVNetworkNode10connect_inERS0_RKfRKN2sf5ColorERKNSt7__cxx1112basic_stringIcSt11char_traitsIcESaIcEEE @318
    _ZN4cvis13CVNetworkNode10disconnectEv @319
    _ZN4cvis13CVNetworkNode11connect_outERS0_RKfRKN2sf5ColorERKNSt7__cxx1112basic_stringIcSt11char_traitsIcESaIcEEE @320
    _ZN4cvis13CVNetworkNode11setPositionERKN2sf7Vector2IfEE @321
    _ZN4cvis13CVNetworkNode11setSelectedERKb @322
    _ZN4cvis13CVNetworkNode12connect_withERS0_RKfRKN2sf5ColorERKNSt7__cxx1112basic_stringIcSt11char_traitsIcESaIcEEE @323
    _ZN4cvis13CVNetworkNode13apply_tethersERKfS2_S2_ @324
    _ZN4cvis13CVNetworkNode13drawInterfaceEPN2sf12RenderTargetE @325
    _ZN4cvis13CVNetworkNode13getConnectionEPNS_9CVElementE @326
    _ZN4cvis13CVNetworkNode13getConnectionERKNSt7__cxx1112basic_stringIcSt11char_traitsIcESaIcEEE @327
    _ZN4cvis13CVNetworkNode13getConnectionERS0_ @328
    _ZN4cvis13CVNetworkNode15hasConnectionToERKS0_ @329
    _ZN4cvis13CVNetworkNode15updateInterfaceERNS_7CVEventERKN2sf7Vector2IfEE @330
    _ZN4cvis13CVNetworkNode18remove_connectionsERS0_ @331
    _ZN4cvis13CVNetworkNode4drawEPN2sf12RenderTargetE @332
    _ZN4cvis13CVNetworkNode4moveERKN2sf7Vector2IfEE @333
    _ZN4cvis13CVNetworkNode6setTagERKNSt7__cxx1112basic_stringIcSt11char_traitsIcESaIcEEE @334
    _ZN4cvis13CVNetworkNode6updateERNS_7CVEventERKN2sf7Vector2IfEE @335
    _ZN4cvis13CVNetworkNode8setScaleERKf @336
    _ZN4cvis13CVNetworkNode9attach_UIEPNS_9CVElementERKhS4_ @337
    _ZN4cvis13CVNetworkNode9drawEdgesEPN2sf12RenderTargetE @338
    _ZN4cvis13CVNetworkNode9remove_UIERKb @339
    _ZN4cvis13CVNetworkNodeC1EPNS_9CVElementERKNSt7__cxx1112basic_stringIcSt11char_traitsIcESaIcEEERKfPKN2sf4FontERKjSI_RKNSD_5ColorE @340
    _ZN4cvis13CVNetworkNodeC2EPNS_9CVElementERKNSt7__cxx1112basic_stringIcSt11char_traitsIcESaIcEEERKfPKN2sf4FontERKjSI_RKNSD_5ColorE @341
    _ZN4cvis13CVNetworkNodeD1Ev @342
    _ZN4cvis13CVNetworkNodeD2Ev @343
    _ZN4cvis13CVProgressBar11setProgressERKf @344
    _ZN4cvis13CVProgressBar16setProgressColorERKN2sf5ColorE @345
    _ZN4cvis13CVProgressBar6updateERNS_7CVEventERKN2sf7Vector2IfEE @346
    _ZN4cvis13CVProgressBar9alignTextEv @347
    _ZN4cvis13CVProgressBarC1EPNS_6CVViewEN2sf7Vector2IfEEffNS_9TextEntryENS3_5ColorES7_S7_f @348
    _ZN4cvis13CVProgressBarC2EPNS_6CVViewEN2sf7Vector2IfEEffNS_9TextEntryENS3_5ColorES7_S7_f @349
    _ZN4cvis13CVScatterPlot11RegLineInfo14getLinearModelERKSt6vectorIfSaIfEES6_ @350
    _ZN4cvis13CVScatterPlot6updateERNS_7CVEventERKN2sf7Vector2IfEE @351
    _ZN4cvis13CVScatterPlotC1EPNS_6CVViewERKN2sf7Vector2IfEERKfS9_RKNS3_5ColorESC_SC_S9_RKNSt7__cxx1112basic_stringIcSt11char_traitsIcESaIcEEESK_SK_ @352
    _ZN4cvis13CVScatterPlotC2EPNS_6CVViewERKN2sf7Vector2IfEERKfS9_RKNS3_5ColorESC_SC_S9_RKNSt7__cxx1112basic_stringIcSt11char_traitsIcESaIcEEESK_SK_ @353
    _ZN4cvis13CVSketchPanel10unlockDrawEv @354
    _ZN4cvis13CVSketchPanel11setPositionERKN2sf7Vector2IfEE @355
    _ZN4cvis13CVSketchPanel11setPositionERKfS2_ @356
    _ZN4cvis13CVSketchPanel12select_layerERKNSt7__cxx1112basic_stringIcSt11char_traitsIcESaIcEEE @357
    _ZN4cvis13CVSketchPanel12select_layerERKj @358
    _ZN4cvis13CVSketchPanel13CVSketchLayer13loadFromImageERKN2sf5ImageE @359
    _ZN4cvis13CVSketchPanel13CVSketchLayerC1EPS0_RKN2sf7Vector2IfEES7_RKNS3_5ColorERKNSt7__cxx1112basic_stringIcSt11char_traitsIcESaIcEEE @360
    _ZN4cvis13CVSketchPanel13CVSketchLayerC2EPS0_RKN2sf7Vector2IfEES7_RKNS3_5ColorERKNSt7__cxx1112basic_stringIcSt11char_traitsIcESaIcEEE @361
    _ZN4cvis13CVSketchPanel13draw_to_layerERKjN2sf7Vector2IiEE @362
    _ZN4cvis13CVSketchPanel13draw_to_layerERKjSt6vectorIS3_IiSaIiEESaIS5_EE @363
    _ZN4cvis13CVSketchPanel14flattenToImageERN2sf5ImageE @364
    _ZN4cvis13CVSketchPanel15clear_highlightEv @365
    _ZN4cvis13CVSketchPanel16flattenToTextureERN2sf7TextureE @366
    _ZN4cvis13CVSketchPanel16highlight_pixelsERKN2sf4RectIiEERKNS1_5ColorERKb @367
    _ZN4cvis13CVSketchPanel16setDisplayCoordsERKb @368
    _ZN4cvis13CVSketchPanel18setBackgroundColorERKN2sf5ColorE @369
    _ZN4cvis13CVSketchPanel18setForegroundColorERKN2sf5ColorE @370
    _ZN4cvis13CVSketchPanel4drawEPN2sf12RenderTargetE @371
    _ZN4cvis13CVSketchPanel4moveERKN2sf7Vector2IfEE @372
    _ZN4cvis13CVSketchPanel4moveERKfS2_ @373
    _ZN4cvis13CVSketchPanel5clearEv @374
    _ZN4cvis13CVSketchPanel6updateERNS_7CVEventERKN2sf7Vector2IfEE @375
    _ZN4cvis13CVSketchPanel8lockDrawEv @376
    _ZN4cvis13CVSketchPanelC1EPNS_6CVViewENSt7__cxx1112basic_stringIcSt11char_traitsIcESaIcEEEN2sf5ColorERKNS9_7Vector2IfEEbSE_ @377
    _ZN4cvis13CVSketchPanelC2EPNS_6CVViewENSt7__cxx1112basic_stringIcSt11char_traitsIcESaIcEEEN2sf5ColorERKNS9_7Vector2IfEEbSE_ @378
    _ZN4cvis13CVSwitchPanel10checkFocusERKNSt7__cxx1112basic_stringIcSt11char_traitsIcESaIcEEE @379
    _ZN4cvis13CVSwitchPanel10setPanRateERKf @380
    _ZN4cvis13CVSwitchPanel11getFocusTagB5cxx11Ev @381
    _ZN4cvis13CVSwitchPanel11setPositionERKN2sf7Vector2IfEE @382
    _ZN4cvis13CVSwitchPanel11switch_nextEv @383
    _ZN4cvis13CVSwitchPanel13enablePanningEv @384
    _ZN4cvis13CVSwitchPanel14disablePanningEv @385
    _ZN4cvis13CVSwitchPanel15addPanelElementEPNS_9CVElementERKNSt7__cxx1112basic_stringIcSt11char_traitsIcESaIcEEERKj @386
    _ZN4cvis13CVSwitchPanel15switch_previousEv @387
    _ZN4cvis13CVSwitchPanel16getActiveElementEv @388
    _ZN4cvis13CVSwitchPanel17setElementPaddingERKf @389
    _ZN4cvis13CVSwitchPanel18removePanelElementERKj @390
    _ZN4cvis13CVSwitchPanel4moveERKN2sf7Vector2IfEE @391
    _ZN4cvis13CVSwitchPanel6updateERNS_7CVEventERKN2sf7Vector2IfEE @392
    _ZN4cvis13CVSwitchPanel9setCenterERKNSt7__cxx1112basic_stringIcSt11char_traitsIcESaIcEEE @393
    _ZN4cvis13CVSwitchPanel9setCenterERKi @394
    _ZN4cvis13CVSwitchPanelC1EPNS_6CVViewENSt7__cxx1112basic_stringIcSt11char_traitsIcESaIcEEEN2sf5ColorERKNS9_7Vector2IfEEbSE_ @395
    _ZN4cvis13CVSwitchPanelC2EPNS_6CVViewENSt7__cxx1112basic_stringIcSt11char_traitsIcESaIcEEEN2sf5ColorERKNS9_7Vector2IfEEbSE_ @396
    _ZN4cvis13CVTogglePanel15addPanelElementEPNS_9CVElementERKNSt7__cxx1112basic_stringIcSt11char_traitsIcESaIcEEERKj @397
    _ZN4cvis13CVTogglePanel6updateERNS_7CVEventERKN2sf7Vector2IfEE @398
    _ZN4cvis13CVTogglePanel9switch_toERKNSt7__cxx1112basic_stringIcSt11char_traitsIcESaIcEEE @399
    _ZN4cvis13CVTogglePanel9switch_toERKy @400
    _ZN4cvis13CVTogglePanelC1EPNS_6CVViewERKNSt7__cxx1112basic_stringIcSt11char_traitsIcESaIcEEERKN2sf5ColorERKNSB_7Vector2IfEERKbSI_ @401
    _ZN4cvis13CVTogglePanelC2EPNS_6CVViewERKNSt7__cxx1112basic_stringIcSt11char_traitsIcESaIcEEERKN2sf5ColorERKNSB_7Vector2IfEERKbSI_ @402
    _ZN4cvis13changeRecordsERNS_10CVScheduleERKNSt7__cxx1112basic_stringIcSt11char_traitsIcESaIcEEERKN6hyperC9TimePointE @403
    _ZN4cvis13expand_canvasERN2sf5ImageERKNS0_7Vector2IiEERKNS0_5ColorE @404
    _ZN4cvis13physicsSpreadERSt6vectorIN2sf6SpriteESaIS2_EERKfRKh @405
    _ZN4cvis13physicsSpreadERSt6vectorIPN2sf5ShapeESaIS3_EERKfRKh @406
    _ZN4cvis13physicsSpreadERSt6vectorIPN2sf6SpriteESaIS3_EERKfRKh @407
    _ZN4cvis13physicsSpreadERSt6vectorIPNS_9CVElementESaIS2_EERKfRKh @408
    _ZN4cvis13setImageColorERN2sf5ImageERKNS0_5ColorE @409
    _ZN4cvis14CVCategoryPlot6updateERNS_7CVEventERKN2sf7Vector2IfEE @410
    _ZN4cvis14CVCategoryPlotC1EPNS_6CVViewERKN2sf7Vector2IfEERKfS9_RKNS3_5ColorESC_SC_S9_RKNSt7__cxx1112basic_stringIcSt11char_traitsIcESaIcEEESK_ @411
    _ZN4cvis14CVCategoryPlotC2EPNS_6CVViewERKN2sf7Vector2IfEERKfS9_RKNS3_5ColorESC_SC_S9_RKNSt7__cxx1112basic_stringIcSt11char_traitsIcESaIcEEESK_ @412
    _ZN4cvis14CVNetworkPanel10removeNodeERNS_13CVNetworkNodeE @413
    _ZN4cvis14CVNetworkPanel10select_allEv @414
    _ZN4cvis14CVNetworkPanel11select_noneEv @415
    _ZN4cvis14CVNetworkPanel12addImageNodeERKNSt7__cxx1112basic_stringIcSt11char_traitsIcESaIcEEES8_S8_RKfRKN2sf7Vector2IfEESF_ @416
    _ZN4cvis14CVNetworkPanel12addImageNodeERKNSt7__cxx1112basic_stringIcSt11char_traitsIcESaIcEEES8_S8_RKfRKN2sf7Vector2IfEESF_RKNSB_5ColorESI_SI_SA_SA_ @417
    _ZN4cvis14CVNetworkPanel12connectByTagERKNSt7__cxx1112basic_stringIcSt11char_traitsIcESaIcEEES8_RKfS8_RKb @418
    _ZN4cvis14CVNetworkPanel13connectByTagsERKNSt7__cxx1112basic_stringIcSt11char_traitsIcESaIcEEERKSt6vectorIS6_SaIS6_EERKfS8_RKb @419
    _ZN4cvis14CVNetworkPanel13connectByTagsERKSt6vectorINSt7__cxx1112basic_stringIcSt11char_traitsIcESaIcEEESaIS7_EERKS7_RKfSD_RKb @420
    _ZN4cvis14CVNetworkPanel13connectByTagsERKSt6vectorINSt7__cxx1112basic_stringIcSt11char_traitsIcESaIcEEESaIS7_EESB_RKfRKS7_RKb @421
    _ZN4cvis14CVNetworkPanel13toggle_selectEPNS_9CVElementE @422
    _ZN4cvis14CVNetworkPanel13toggle_selectERNS_13CVNetworkNodeE @423
    _ZN4cvis14CVNetworkPanel13updatePhysicsERNS_7CVEventERKN2sf7Vector2IfEE @424
    _ZN4cvis14CVNetworkPanel14removeSelectedEv @425
    _ZN4cvis14CVNetworkPanel14setCordonStateERKb @426
    _ZN4cvis14CVNetworkPanel15addPanelElementEPNS_9CVElementERKNSt7__cxx1112basic_stringIcSt11char_traitsIcESaIcEEESA_RKfRKj @427
    _ZN4cvis14CVNetworkPanel16removeNodesByTagERKNSt7__cxx1112basic_stringIcSt11char_traitsIcESaIcEEE @428
    _ZN4cvis14CVNetworkPanel16select_neighborsERKNSt7__cxx1112basic_stringIcSt11char_traitsIcESaIcEEE @429
    _ZN4cvis14CVNetworkPanel16select_neighborsERNS_13CVNetworkNodeE @430
    _ZN4cvis14CVNetworkPanel16setNodeFillColorERKN2sf5ColorE @431
    _ZN4cvis14CVNetworkPanel17removeNodesByTagsERKSt6vectorINSt7__cxx1112basic_stringIcSt11char_traitsIcESaIcEEESaIS7_EE @432
    _ZN4cvis14CVNetworkPanel18node_has_neighborsERKNS_13CVNetworkNodeE @433
    _ZN4cvis14CVNetworkPanel18node_has_neighborsERKNSt7__cxx1112basic_stringIcSt11char_traitsIcESaIcEEE @434
    _ZN4cvis14CVNetworkPanel18removePanelElementEPNS_9CVElementE @435
    _ZN4cvis14CVNetworkPanel4drawEPN2sf12RenderTargetE @436
    _ZN4cvis14CVNetworkPanel6selectEPNS_9CVElementE @437
    _ZN4cvis14CVNetworkPanel6selectERNS_13CVNetworkNodeE @438
    _ZN4cvis14CVNetworkPanel6updateERNS_7CVEventERKN2sf7Vector2IfEE @439
    _ZN4cvis14CVNetworkPanel7addNodeERKNSt7__cxx1112basic_stringIcSt11char_traitsIcESaIcEEES8_RKfRKN2sf7Vector2IfEESF_ @440
    _ZN4cvis14CVNetworkPanel7addNodeERKNSt7__cxx1112basic_stringIcSt11char_traitsIcESaIcEEES8_RKfRKN2sf7Vector2IfEESF_RKNSB_5ColorESI_SA_SA_ @441
    _ZN4cvis14CVNetworkPanel8deselectEPNS_9CVElementE @442
    _ZN4cvis14CVNetworkPanel8deselectERNS_13CVNetworkNodeE @443
    _ZN4cvis14CVNetworkPanelC1EPNS_6CVViewERKNSt7__cxx1112basic_stringIcSt11char_traitsIcESaIcEEERKN2sf7Vector2IfEESF_RKNSB_5ColorESI_RKNS_9TextEntryERKf @444
    _ZN4cvis14CVNetworkPanelC2EPNS_6CVViewERKNSt7__cxx1112basic_stringIcSt11char_traitsIcESaIcEEERKN2sf7Vector2IfEESF_RKNSB_5ColorESI_RKNS_9TextEntryERKf @445
    _ZN4cvis15CVAssemblyPanel11getAssemblyEPNS_9CVElementE @446
    _ZN4cvis15CVAssemblyPanel11newAssemblyERKSt6vectorIPNS_9CVElementESaIS3_EE @447
    _ZN4cvis15CVAssemblyPanel11setPositionERKN2sf7Vector2IfEE @448
    _ZN4cvis15CVAssemblyPanel12detachMemberEPNS_9CVElementE @449
    _ZN4cvis15CVAssemblyPanel14removeAssemblyEPNS0_8assemblyE @450
    _ZN4cvis15CVAssemblyPanel15addAssemblyItemERKN2sf7Vector2IfEERKNSt7__cxx1112basic_stringIcSt11char_traitsIcESaIcEEERKj @451
    _ZN4cvis15CVAssemblyPanel15getAssemblyInfoERSo @452
    _ZN4cvis15CVAssemblyPanel15getAssemblyTagsERSt6vectorIS1_INSt7__cxx1112basic_stringIcSt11char_traitsIcESaIcEEESaIS7_EESaIS9_EE @453
    _ZN4cvis15CVAssemblyPanel15setAssemblyTagsERKSt6vectorINSt7__cxx1112basic_stringIcSt11char_traitsIcESaIcEEESaIS7_EE @454
    _ZN4cvis15CVAssemblyPanel16setPanelItemSizeERKN2sf7Vector2IfEE @455
    _ZN4cvis15CVAssemblyPanel17setMaxLabelLengthERKj @456
    _ZN4cvis15CVAssemblyPanel23setInitialAssemblyStateERKh @457
    _ZN4cvis15CVAssemblyPanel4drawEPN2sf12RenderTargetE @458
    _ZN4cvis15CVAssemblyPanel4moveERKN2sf7Vector2IfEE @459
    _ZN4cvis15CVAssemblyPanel6updateERNS_7CVEventERKN2sf7Vector2IfEE @460
    _ZN4cvis15CVAssemblyPanel9setTracksERKb @461
    _ZN4cvis15CVAssemblyPanelC1EPNS_6CVViewENSt7__cxx1112basic_stringIcSt11char_traitsIcESaIcEEEN2sf5ColorERKNS9_7Vector2IfEEbSE_ @462
    _ZN4cvis15CVAssemblyPanelC2EPNS_6CVViewENSt7__cxx1112basic_stringIcSt11char_traitsIcESaIcEEEN2sf5ColorERKNS9_7Vector2IfEEbSE_ @463
    _ZN4cvis15CVAssemblyPanelD0Ev @464
    _ZN4cvis15CVAssemblyPanelD1Ev @465
    _ZN4cvis15CVAssemblyPanelD2Ev @466
    _ZN4cvis15CVCalendarPanel11setPositionERKN2sf7Vector2IfEE @467
    _ZN4cvis15CVCalendarPanel11setPositionERKfS2_ @468
    _ZN4cvis15CVCalendarPanel12centerOnTimeERKN6hyperC9TimePointE @469
    _ZN4cvis15CVCalendarPanel12changeRecordERKN6hyperC9TimePointES4_S4_RKNS1_10time_scaleE @470
    _ZN4cvis15CVCalendarPanel12changeRecordERKNSt7__cxx1112basic_stringIcSt11char_traitsIcESaIcEEERKN6hyperC9TimePointESC_ @471
    _ZN4cvis15CVCalendarPanel12removeRecordERKN6hyperC9TimePointE @472
    _ZN4cvis15CVCalendarPanel12removeRecordERKNSt7__cxx1112basic_stringIcSt11char_traitsIcESaIcEEE @473
    _ZN4cvis15CVCalendarPanel12setTimeScaleERKN6hyperC10time_scaleE @474
    _ZN4cvis15CVCalendarPanel13changeRecordsERKNSt7__cxx1112basic_stringIcSt11char_traitsIcESaIcEEERKN6hyperC9TimePointE @475
    _ZN4cvis15CVCalendarPanel13updateDisplayEv @476
    _ZN4cvis15CVCalendarPanel13updateRecordsEv @477
    _ZN4cvis15CVCalendarPanel4drawEPN2sf12RenderTargetE @478
    _ZN4cvis15CVCalendarPanel4loadERKNS_10CVScheduleE @479
    _ZN4cvis15CVCalendarPanel4loadERKNSt7__cxx1112basic_stringIcSt11char_traitsIcESaIcEEE @480
    _ZN4cvis15CVCalendarPanel4moveERKN2sf7Vector2IfEE @481
    _ZN4cvis15CVCalendarPanel4moveERKfS2_ @482
    _ZN4cvis15CVCalendarPanel5clearEv @483
    _ZN4cvis15CVCalendarPanel6updateERNS_7CVEventERKN2sf7Vector2IfEE @484
    _ZN4cvis15CVCalendarPanel7setTimeERKN6hyperC9TimePointE @485
    _ZN4cvis15CVCalendarPanel8moveTimeERKN6hyperC9TimePointE @486
    _ZN4cvis15CVCalendarPanel9addRecordERKNSt7__cxx1112basic_stringIcSt11char_traitsIcESaIcEEERKN6hyperC9TimePointESC_RKNS9_10time_scaleES8_ @487
    _ZN4cvis15CVCalendarPanel9set24hourERKb @488
    _ZN4cvis15CVCalendarPanelC1EPNS_6CVViewERKNSt7__cxx1112basic_stringIcSt11char_traitsIcESaIcEEERKN2sf5ColorERKNSB_7Vector2IfEERKbSI_ @489
    _ZN4cvis15CVCalendarPanelC2EPNS_6CVViewERKNSt7__cxx1112basic_stringIcSt11char_traitsIcESaIcEEERKN2sf5ColorERKNSB_7Vector2IfEERKbSI_ @490
    _ZN4cvis15CVTriggerTargetC1EPNS_9CVElementERKNSt7__cxx1112basic_stringIcSt11char_traitsIcESaIcEEERKj @491
    _ZN4cvis15CVTriggerTargetC2EPNS_9CVElementERKNSt7__cxx1112basic_stringIcSt11char_traitsIcESaIcEEERKj @492
    _ZN4cvis15averageTextSizeERSt6vectorIN2sf4TextESaIS2_EE @493
    _ZN4cvis15copyToClipboardERKNSt7__cxx1112basic_stringIcSt11char_traitsIcESaIcEEE @494
    _ZN4cvis16CVBasicViewPanel4drawEPN2sf12RenderTargetE @495
    _ZN4cvis16CVBasicViewPanel6updateERNS_7CVEventERKN2sf7Vector2IfEE @496
    _ZN4cvis16CVBasicViewPanelC1EPNS_6CVViewENSt7__cxx1112basic_stringIcSt11char_traitsIcESaIcEEEN2sf5ColorERKNS9_7Vector2IfEEbSE_ @497
    _ZN4cvis16CVBasicViewPanelC2EPNS_6CVViewENSt7__cxx1112basic_stringIcSt11char_traitsIcESaIcEEEN2sf5ColorERKNS9_7Vector2IfEEbSE_ @498
    _ZN4cvis16CVCalendarRecord10set_repeatERKN6hyperC9TimePointE @499
    _ZN4cvis16CVCalendarRecord11addReminderERKN6hyperC9TimePointE @500
    _ZN4cvis16CVCalendarRecord11setLocationERKNSt7__cxx1112basic_stringIcSt11char_traitsIcESaIcEEE @501
    _ZN4cvis16CVCalendarRecord12clear_repeatEv @502
    _ZN4cvis16CVCalendarRecord12flagReminderERKN6hyperC9TimePointE @503
    _ZN4cvis16CVCalendarRecord13setRepeatTagsERKSt6vectorINSt7__cxx1112basic_stringIcSt11char_traitsIcESaIcEEESaIS7_EE @504
    _ZN4cvis16CVCalendarRecord4loadEP6_iobuf @505
    _ZN4cvis16CVCalendarRecord5shiftERKN6hyperC9TimePointE @506
    _ZN4cvis16CVCalendarRecord5shiftERKS0_RKN6hyperC9TimePointERKb @507
    _ZN4cvis16CVCalendarRecord6setEndERKN6hyperC9TimePointE @508
    _ZN4cvis16CVCalendarRecord6setTagERKNSt7__cxx1112basic_stringIcSt11char_traitsIcESaIcEEE @509
    _ZN4cvis16CVCalendarRecord8setColorERKN2sf5ColorE @510
    _ZN4cvis16CVCalendarRecord8setScaleERKN6hyperC10time_scaleE @511
    _ZN4cvis16CVCalendarRecord8setStartERKN6hyperC9TimePointE @512
    _ZN4cvis16CVCalendarRecordC1ERKNSt7__cxx1112basic_stringIcSt11char_traitsIcESaIcEEERKN6hyperC9TimePointESC_RKNS9_10time_scaleERKN2sf5ColorE @513
    _ZN4cvis16CVCalendarRecordC1Ev @514
    _ZN4cvis16CVCalendarRecordC2ERKNSt7__cxx1112basic_stringIcSt11char_traitsIcESaIcEEERKN6hyperC9TimePointESC_RKNS9_10time_scaleERKN2sf5ColorE @515
    _ZN4cvis16CVCalendarRecordC2Ev @516
    _ZN4cvis16getClipboardTextB5cxx11Ev @517
    _ZN4cvis17CVDataViewerPanel11getDataSizeEv @518
    _ZN4cvis17CVDataViewerPanel11updateCellsEv @519
    _ZN4cvis17CVDataViewerPanel12copySelectedEv @520
    _ZN4cvis17CVDataViewerPanel18applyModificationsEv @521
    _ZN4cvis17CVDataViewerPanel18pasteFromClipboardEv @522
    _ZN4cvis17CVDataViewerPanel5setupEv @523
    _ZN4cvis17CVDataViewerPanel6updateERNS_7CVEventERKN2sf7Vector2IfEE @524
    _ZN4cvis17rounded_rectangle11setRoundingERKfRKjRKSt6vectorIbSaIbEE @525
    _ZN4cvis17rounded_rectangle16setAllRoundStateERKb @526
    _ZN4cvis17rounded_rectangle17setCornerRoundingERKjRKb @527
    _ZN4cvis17rounded_rectangle17setTopLeftRoundedERKb @528
    _ZN4cvis17rounded_rectangle18setTopRightRoundedERKb @529
    _ZN4cvis17rounded_rectangle20setBottomLeftRoundedERKb @530
    _ZN4cvis17rounded_rectangle21setBottomRightRoundedERKb @531
    _ZN4cvis17rounded_rectangle5traceERKN2sf7Vector2IfEERKfRKj @532
    _ZN4cvis17rounded_rectangle7setSizeERKN2sf7Vector2IfEE @533
    _ZN4cvis17rounded_rectangleC1ERKN2sf7Vector2IfEERKfRKNS1_5ColorERKj @534
    _ZN4cvis17rounded_rectangleC1Ev @535
    _ZN4cvis17rounded_rectangleC2ERKN2sf7Vector2IfEERKfRKNS1_5ColorERKj @536
    _ZN4cvis17rounded_rectangleC2Ev @537
    _ZN4cvis18check_availabilityERNS_10CVScheduleERKN6hyperC9TimePointES5_ @538
    _ZN4cvis5CVApp10mainUpdateEv @539
    _ZN4cvis5CVApp11clearEventsEv @540
    _ZN4cvis5CVApp7addViewEPNS_6CVViewERKNSt7__cxx1112basic_stringIcSt11char_traitsIcESaIcEEE @541
    _ZN4cvis5CVApp8closeAllEv @542
    _ZN4cvis5CVApp8getEventERNSt7__cxx1112basic_stringIcSt11char_traitsIcESaIcEEE @543
    _ZN4cvis5CVApp8initViewEjjNSt7__cxx1112basic_stringIcSt11char_traitsIcESaIcEEEj @544
    _ZN4cvis5CVApp9closeViewERKNSt7__cxx1112basic_stringIcSt11char_traitsIcESaIcEEE @545
    _ZN4cvis5CVApp9closeViewEj @546
    _ZN4cvis5CVApp9pushEventERKNSt7__cxx1112basic_stringIcSt11char_traitsIcESaIcEEE @547
    _ZN4cvis5CVAppC1EjffRKNSt7__cxx1112basic_stringIcSt11char_traitsIcESaIcEEE @548
    _ZN4cvis5CVAppC2EjffRKNSt7__cxx1112basic_stringIcSt11char_traitsIcESaIcEEE @549
    _ZN4cvis5CVAppD1Ev @550
    _ZN4cvis5CVAppD2Ev @551
    _ZN4cvis5CVBox10setTextureEPKN2sf7TextureERKNS1_4RectIiEE @552
    _ZN4cvis5CVBox10setTextureERKNSt7__cxx1112basic_stringIcSt11char_traitsIcESaIcEEERKN2sf4RectIiEE @553
    _ZN4cvis5CVBox11setPositionERKN2sf7Vector2IfEE @554
    _ZN4cvis5CVBox11setRotationERKfRKhRKN2sf7Vector2IfEE @555
    _ZN4cvis5CVBox11setRoundingERKfRKjRKSt6vectorIbSaIbEE @556
    _ZN4cvis5CVBox12setClearFillERKb @557
    _ZN4cvis5CVBox12setFillColorERKN2sf5ColorE @558
    _ZN4cvis5CVBox12updateBoundsEv @559
    _ZN4cvis5CVBox14setSpriteColorERKN2sf5ColorE @560
    _ZN4cvis5CVBox15setOutlineColorERKN2sf5ColorE @561
    _ZN4cvis5CVBox19setOutlineThicknessERKf @562
    _ZN4cvis5CVBox4drawEPN2sf12RenderTargetE @563
    _ZN4cvis5CVBox4moveERKN2sf7Vector2IfEE @564
    _ZN4cvis5CVBox6rotateERKfRKhRKN2sf7Vector2IfEE @565
    _ZN4cvis5CVBox6updateERNS_7CVEventERKN2sf7Vector2IfEE @566
    _ZN4cvis5CVBox7setSizeERKN2sf7Vector2IfEE @567
    _ZN4cvis5CVBox8setColorERKN2sf5ColorE @568
    _ZN4cvis5CVBox9highlightERKb @569
    _ZN4cvis5CVBox9setExpandERKb @570
    _ZN4cvis5CVBoxC1EPNS_6CVViewEN2sf7Vector2IfEEffNS3_5ColorES6_f @571
    _ZN4cvis5CVBoxC2EPNS_6CVViewEN2sf7Vector2IfEEffNS3_5ColorES6_f @572
    _ZN4cvis5sleepEf @573
    _ZN4cvis6CVAnim10changePathERKSt6vectorINS_16CVAnimCheckpointESaIS2_EE @574
    _ZN4cvis6CVAnim14addCheckpointsERKSt6vectorINS_16CVAnimCheckpointESaIS2_EEb @575
    _ZN4cvis6CVAnim14nextCheckpointEv @576
    _ZN4cvis6CVAnim16checkPassiveAnimEv @577
    _ZN4cvis6CVAnim16resetPassiveAnimEv @578
    _ZN4cvis6CVAnim23checkpointDistanceValidERKf @579
    _ZN4cvis6CVAnim9animFrameERKf @580
    _ZN4cvis6CVAnimC1EPN2sf13TransformableERKSt6vectorINS_16CVAnimCheckpointESaIS5_EE @581
    _ZN4cvis6CVAnimC2EPN2sf13TransformableERKSt6vectorINS_16CVAnimCheckpointESaIS5_EE @582
    _ZN4cvis6CVAnimD1Ev @583
    _ZN4cvis6CVAnimD2Ev @584
    _ZN4cvis6CVDataC1EPKvRKyRKhS6_RKN2sf8Keyboard3KeyE @585
    _ZN4cvis6CVDataC1ERKS0_ @586
    _ZN4cvis6CVDataC2EPKvRKyRKhS6_RKN2sf8Keyboard3KeyE @587
    _ZN4cvis6CVDataC2ERKS0_ @588
    _ZN4cvis6CVDataD1Ev @589
    _ZN4cvis6CVDataD2Ev @590
    _ZN4cvis6CVDataaSERKS0_ @591
    _ZN4cvis6CVPlot10getPlotPosERKN2sf7Vector2IfEE @592
    _ZN4cvis6CVPlot10getPlotPosERKfS2_ @593
    _ZN4cvis6CVPlot10removeDataEjj @594
    _ZN4cvis6CVPlot10removeDataEjjj @595
    _ZN4cvis6CVPlot11addPlotTextERKNS_9TextEntryERKN2sf7Vector2IfEE @596
    _ZN4cvis6CVPlot11getPlotXPosERKf @597
    _ZN4cvis6CVPlot11getPlotYPosERKf @598
    _ZN4cvis6CVPlot11getScalePosERKN2sf7Vector2IfEE @599
    _ZN4cvis6CVPlot11setPositionERKN2sf7Vector2IfEE @600
    _ZN4cvis6CVPlot12getScaleXPosERKf @601
    _ZN4cvis6CVPlot12getScaleYPosERKf @602
    _ZN4cvis6CVPlot12setAxisColorERKN2sf5ColorE @603
    _ZN4cvis6CVPlot12updateBoundsEv @604
    _ZN4cvis6CVPlot14select_indicesERKSt6vectorIjSaIjEE @605
    _ZN4cvis6CVPlot16setAxisLineColorERKN2sf5ColorE @606
    _ZN4cvis6CVPlot17get_verbal_x_axisEv @607
    _ZN4cvis6CVPlot17setAxisLabelColorERKN2sf5ColorE @608
    _ZN4cvis6CVPlot18get_numeric_x_axisEv @609
    _ZN4cvis6CVPlot18get_numeric_y_axisEv @610
    _ZN4cvis6CVPlot18removeDataOutliersEv @611
    _ZN4cvis6CVPlot20setPlotSpriteTextureERKNSt7__cxx1112basic_stringIcSt11char_traitsIcESaIcEEE @612
    _ZN4cvis6CVPlot4axis12setLineColorERKN2sf5ColorE @613
    _ZN4cvis6CVPlot4axis13setLabelColorERKN2sf5ColorE @614
    _ZN4cvis6CVPlot4axis16getNumericLabelsERKj @615
    _ZN4cvis6CVPlot4axis18updateRenderLabelsEv @616
    _ZN4cvis6CVPlot4axis6updateEv @617
    _ZN4cvis6CVPlot4axisC1ERKfRKjPS0_RKSt6vectorINSt7__cxx1112basic_stringIcSt11char_traitsIcESaIcEEESaISD_EERKhS3_S3_RKN2sf5ColorERKNS_9TextEntryES3_ @618
    _ZN4cvis6CVPlot4axisC2ERKfRKjPS0_RKSt6vectorINSt7__cxx1112basic_stringIcSt11char_traitsIcESaIcEEESaISD_EERKhS3_S3_RKN2sf5ColorERKNS_9TextEntryES3_ @619
    _ZN4cvis6CVPlot4drawEPN2sf12RenderTargetE @620
    _ZN4cvis6CVPlot4moveERKN2sf7Vector2IfEE @621
    _ZN4cvis6CVPlot6updateERNS_7CVEventERKN2sf7Vector2IfEE @622
    _ZN4cvis6CVPlot7Dataset12rm_dimensionERKj @623
    _ZN4cvis6CVPlot7Dataset15getLabelledDataERKNSt7__cxx1112basic_stringIcSt11char_traitsIcESaIcEEERKj @624
    _ZN4cvis6CVPlot7Dataset15getSubsetPointsEv @625
    _ZN4cvis6CVPlot7Dataset17getLabelledPointsERKNSt7__cxx1112basic_stringIcSt11char_traitsIcESaIcEEE @626
    _ZN4cvis6CVPlot7Dataset6updateEv @627
    _ZN4cvis6CVPlot7DatasetC1ERKSt6vectorINSt7__cxx1112basic_stringIcSt11char_traitsIcESaIcEEESaIS8_EERKS2_IS2_IfSaIfEESaISE_EERKS2_IS2_IjSaIjEESaISK_EERKS8_PS0_ @628
    _ZN4cvis6CVPlot7DatasetC1ERKSt6vectorIS2_IfSaIfEESaIS4_EERKS2_INSt7__cxx1112basic_stringIcSt11char_traitsIcESaIcEEESaISE_EERKS2_IS2_IjSaIjEESaISK_EERKSE_PS0_ @629
    _ZN4cvis6CVPlot7DatasetC1ERKSt6vectorIS2_IfSaIfEESaIS4_EERKS2_IjSaIjEERKNSt7__cxx1112basic_stringIcSt11char_traitsIcESaIcEEERKS2_ISI_SaISI_EEPS0_ @630
    _ZN4cvis6CVPlot7DatasetC1ERKSt6vectorIfSaIfEES6_RKS2_IjSaIjEERKNSt7__cxx1112basic_stringIcSt11char_traitsIcESaIcEEERKS2_ISG_SaISG_EEPS0_ @631
    _ZN4cvis6CVPlot7DatasetC2ERKSt6vectorINSt7__cxx1112basic_stringIcSt11char_traitsIcESaIcEEESaIS8_EERKS2_IS2_IfSaIfEESaISE_EERKS2_IS2_IjSaIjEESaISK_EERKS8_PS0_ @632
    _ZN4cvis6CVPlot7DatasetC2ERKSt6vectorIS2_IfSaIfEESaIS4_EERKS2_INSt7__cxx1112basic_stringIcSt11char_traitsIcESaIcEEESaISE_EERKS2_IS2_IjSaIjEESaISK_EERKSE_PS0_ @633
    _ZN4cvis6CVPlot7DatasetC2ERKSt6vectorIS2_IfSaIfEESaIS4_EERKS2_IjSaIjEERKNSt7__cxx1112basic_stringIcSt11char_traitsIcESaIcEEERKS2_ISI_SaISI_EEPS0_ @634
    _ZN4cvis6CVPlot7DatasetC2ERKSt6vectorIfSaIfEES6_RKS2_IjSaIjEERKNSt7__cxx1112basic_stringIcSt11char_traitsIcESaIcEEERKS2_ISG_SaISG_EEPS0_ @635
    _ZN4cvis6CVPlot7addDataERKSt6vectorINSt7__cxx1112basic_stringIcSt11char_traitsIcESaIcEEESaIS7_EERKS1_IS1_IfSaIfEESaISD_EERKS1_IS1_IjSaIjEESaISJ_EERKS7_SB_ @636
    _ZN4cvis6CVPlot7addDataERKSt6vectorIS1_IfSaIfEESaIS3_EERKS1_INSt7__cxx1112basic_stringIcSt11char_traitsIcESaIcEEESaISD_EERKS1_IS1_IjSaIjEESaISJ_EERKSD_ @637
    _ZN4cvis6CVPlot7addDataERKSt6vectorIS1_IfSaIfEESaIS3_EERKS1_IjSaIjEERKS1_IS1_INSt7__cxx1112basic_stringIcSt11char_traitsIcESaIcEEESaISH_EESaISJ_EERKSH_ @638
    _ZN4cvis6CVPlot7addDataERKSt6vectorIfSaIfEES5_RKS1_IjSaIjEERKNSt7__cxx1112basic_stringIcSt11char_traitsIcESaIcEEERKS1_ISF_SaISF_EE @639
    _ZN4cvis6CVPlot9clearDataEj @640
    _ZN4cvis6CVPlot9clearDataEv @641
    _ZN4cvis6CVPlot9dataPoint12setSelectionERKb @642
    _ZN4cvis6CVPlot9dataPoint6updateEv @643
    _ZN4cvis6CVPlot9dataPointC1ERKNSt7__cxx1112basic_stringIcSt11char_traitsIcESaIcEEERKfPNS0_7DatasetERKjbRKN2sf7Vector2IfEE @644
    _ZN4cvis6CVPlot9dataPointC1ERKSt6vectorIfSaIfEEPNS0_7DatasetERKjRKS2_INSt7__cxx1112basic_stringIcSt11char_traitsIcESaIcEEESaISG_EEbRKN2sf7Vector2IfEE @645
    _ZN4cvis6CVPlot9dataPointC1ERKfRKNSt7__cxx1112basic_stringIcSt11char_traitsIcESaIcEEEPNS0_7DatasetERKjbRKN2sf7Vector2IfEE @646
    _ZN4cvis6CVPlot9dataPointC1ERKfS3_PNS0_7DatasetERKjRKSt6vectorINSt7__cxx1112basic_stringIcSt11char_traitsIcESaIcEEESaISE_EEbRKN2sf7Vector2IfEE @647
    _ZN4cvis6CVPlot9dataPointC2ERKNSt7__cxx1112basic_stringIcSt11char_traitsIcESaIcEEERKfPNS0_7DatasetERKjbRKN2sf7Vector2IfEE @648
    _ZN4cvis6CVPlot9dataPointC2ERKSt6vectorIfSaIfEEPNS0_7DatasetERKjRKS2_INSt7__cxx1112basic_stringIcSt11char_traitsIcESaIcEEESaISG_EEbRKN2sf7Vector2IfEE @649
    _ZN4cvis6CVPlot9dataPointC2ERKfRKNSt7__cxx1112basic_stringIcSt11char_traitsIcESaIcEEEPNS0_7DatasetERKjbRKN2sf7Vector2IfEE @650
    _ZN4cvis6CVPlot9dataPointC2ERKfS3_PNS0_7DatasetERKjRKSt6vectorINSt7__cxx1112basic_stringIcSt11char_traitsIcESaIcEEESaISE_EEbRKN2sf7Vector2IfEE @651
    _ZN4cvis6CVPlotC1EPNS_6CVViewERKN2sf7Vector2IfEERKfS9_RKNS3_5ColorESC_SC_S9_RKNSt7__cxx1112basic_stringIcSt11char_traitsIcESaIcEEESK_ @652
    _ZN4cvis6CVPlotC2EPNS_6CVViewERKN2sf7Vector2IfEERKfS9_RKNS3_5ColorESC_SC_S9_RKNSt7__cxx1112basic_stringIcSt11char_traitsIcESaIcEEESK_ @653
    _ZN4cvis6CVTextC1EPNS_6CVViewERKNS_9TextEntryERKN2sf7Vector2IfEESA_RKb @654
    _ZN4cvis6CVTextC2EPNS_6CVViewERKNS_9TextEntryERKN2sf7Vector2IfEESA_RKb @655
    _ZN4cvis6CVView10getTextureERN2sf7TextureE @656
    _ZN4cvis6CVView10setVisibleEjb @657
    _ZN4cvis6CVView11clearCursorEv @658
    _ZN4cvis6CVView11clearShadowEv @659
    _ZN4cvis6CVView11setDropableERKb @660
    _ZN4cvis6CVView11setPositionERKN2sf7Vector2IiEE @661
    _ZN4cvis6CVView12setTopMarginERKf @662
    _ZN4cvis6CVView14activateWindowEv @663
    _ZN4cvis6CVView14getElementByIdERKNSt7__cxx1112basic_stringIcSt11char_traitsIcESaIcEEE @664
    _ZN4cvis6CVView14getTaggedPanelENSt7__cxx1112basic_stringIcSt11char_traitsIcESaIcEEE @665
    _ZN4cvis6CVView14isolateVisibleEj @666
    _ZN4cvis6CVView15setVisiblePanelENSt7__cxx1112basic_stringIcSt11char_traitsIcESaIcEEE @667
    _ZN4cvis6CVView15setVisiblePanelEPNS_11CVViewPanelE @668
    _ZN4cvis6CVView15setVisiblePanelEj @669
    _ZN4cvis6CVView16handleViewEventsERNS_7CVEventE @670
    _ZN4cvis6CVView17setScreenPositionEN2sf7Vector2IiEE @671
    _ZN4cvis6CVView19setDefaultViewScaleERKfS2_ @672
    _ZN4cvis6CVView4drawEPN2sf12RenderTargetE @673
    _ZN4cvis6CVView4initEv @674
    _ZN4cvis6CVView5closeEv @675
    _ZN4cvis6CVView6updateERNS_7CVEventERKN2sf7Vector2IfEE @676
    _ZN4cvis6CVView7getSizeEv @677
    _ZN4cvis6CVView7restoreEv @678
    _ZN4cvis6CVView8addPanelEPNS_11CVViewPanelENSt7__cxx1112basic_stringIcSt11char_traitsIcESaIcEEERKj @679
    _ZN4cvis6CVView8containsERKNS_9CVElementE @680
    _ZN4cvis6CVView8maximizeEv @681
    _ZN4cvis6CVView8minimizeEv @682
    _ZN4cvis6CVView8setStateEh @683
    _ZN4cvis6CVView8stopAnimEPN2sf13TransformableE @684
    _ZN4cvis6CVView9setCursorEPKN2sf7TextureERKNS1_7Vector2IfEERKNS1_5ColorES8_ @685
    _ZN4cvis6CVView9setCursorERKN2sf6Cursor4TypeE @686
    _ZN4cvis6CVView9setCursorERKNSt7__cxx1112basic_stringIcSt11char_traitsIcESaIcEEERKN2sf7Vector2IfEERKNS9_5ColorESD_ @687
    _ZN4cvis6CVView9setShadowEPKN2sf7TextureERKNS1_7Vector2IfEERKhS8_ @688
    _ZN4cvis6CVView9setShadowERKNSt7__cxx1112basic_stringIcSt11char_traitsIcESaIcEEERKN2sf7Vector2IfEERKhSD_ @689
    _ZN4cvis6CVView9setShadowERNS_9CVElementERKhRKf @690
    _ZN4cvis6CVViewC1EjjNSt7__cxx1112basic_stringIcSt11char_traitsIcESaIcEEEjPNS_5CVAppERKN2sf7Vector2IfEERKNS9_5ColorE @691
    _ZN4cvis6CVViewC2EjjNSt7__cxx1112basic_stringIcSt11char_traitsIcESaIcEEEjPNS_5CVAppERKN2sf7Vector2IfEERKNS9_5ColorE @692
    _ZN4cvis6CVViewD0Ev @693
    _ZN4cvis6CVViewD1Ev @694
    _ZN4cvis6CVViewD2Ev @695
    _ZN4cvis6CVViewixENSt7__cxx1112basic_stringIcSt11char_traitsIcESaIcEEE @696
    _ZN4cvis7CVBrush10setVisibleERKb @697
    _ZN4cvis7CVBrush11drawToImageERN2sf5ImageERKNS1_7Vector2IiEE @698
    _ZN4cvis7CVBrush11drawToImageERN2sf5ImageERKSt6vectorINS1_7Vector2IiEESaIS6_EE @699
    _ZN4cvis7CVBrush11drawToImageERN2sf5ImageERKSt6vectorIS4_IiSaIiEESaIS6_EE @700
    _ZN4cvis7CVBrush11setPositionERKN2sf7Vector2IfEE @701
    _ZN4cvis7CVBrush15setPrimaryColorERKN2sf5ColorE @702
    _ZN4cvis7CVBrush17setSecondaryColorERKN2sf5ColorE @703
    _ZN4cvis7CVBrush4drawEPN2sf12RenderTargetE @704
    _ZN4cvis7CVBrush4moveERKN2sf7Vector2IfEE @705
    _ZN4cvis7CVBrush5scaleERKN2sf7Vector2IfEE @706
    _ZN4cvis7CVBrush5scaleERKf @707
    _ZN4cvis7CVBrush7setIconEPKN2sf7TextureE @708
    _ZN4cvis7CVBrush7setTypeERKNS0_11CVBrushTypeE @709
    _ZN4cvis7CVBrush9clearIconEv @710
    _ZN4cvis7CVBrush9setEffectERKNS0_13CVBrushEffectE @711
    _ZN4cvis7CVBrushC1ERKN2sf5ColorERKfS6_S6_RKNS0_11CVBrushTypeERKNS0_13CVBrushEffectE @712
    _ZN4cvis7CVBrushC2ERKN2sf5ColorERKfS6_S6_RKNS0_11CVBrushTypeERKNS0_13CVBrushEffectE @713
    _ZN4cvis7CVEvent11releaseDataERKh @714
    _ZN4cvis7CVEvent12captureFocusEv @715
    _ZN4cvis7CVEvent12captureMouseEv @716
    _ZN4cvis7CVEvent12keyIsPressedERKc @717
    _ZN4cvis7CVEvent12releaseFocusEv @718
    _ZN4cvis7CVEvent18moveCapturedShapesEv @719
    _ZN4cvis7CVEvent5resetEv @720
    _ZN4cvis7CVEvent8tossDataEv @721
    _ZN4cvis7CVEvent9checkCondERKhRKN2sf8Keyboard3KeyE @722
    _ZN4cvis7CVEvent9clearKeysEv @723
    _ZN4cvis7CVEvent9focusFreeEv @724
    _ZN4cvis7CVEventC1Ev @725
    _ZN4cvis7CVEventC2Ev @726
    _ZN4cvis7CVShape11setPositionERKN2sf7Vector2IfEE @727
    _ZN4cvis7CVShape12setMaskAlphaERKh @728
    _ZN4cvis7CVShape14setSpriteColorERKN2sf5ColorE @729
    _ZN4cvis7CVShape4drawEPN2sf12RenderTargetE @730
    _ZN4cvis7CVShape4moveERKN2sf7Vector2IfEE @731
    _ZN4cvis7CVShape6updateERNS_7CVEventERKN2sf7Vector2IfEE @732
    _ZN4cvis7CVShape7setMaskEPKN2sf7TextureERKNS1_5ColorE @733
    _ZN4cvis7CVShape7setSizeERKN2sf7Vector2IfEE @734
    _ZN4cvis7CVShape8hideMaskEv @735
    _ZN4cvis7CVShape8showMaskEv @736
    _ZN4cvis7CVShapeC1EPNS_6CVViewE @737
    _ZN4cvis7CVShapeC2EPNS_6CVViewE @738
    _ZN4cvis7sigFigsB5cxx11ERKf @739
    _ZN4cvis7sigFigsERNSt7__cxx1112basic_stringIcSt11char_traitsIcESaIcEEE @740
    _ZN4cvis8CVButton14setFadeOnClickERKbRKhS4_ @741
    _ZN4cvis8CVButton4drawEPN2sf12RenderTargetE @742
    _ZN4cvis8CVButton6toggleEv @743
    _ZN4cvis8CVButton6updateERNS_7CVEventERKN2sf7Vector2IfEE @744
    _ZN4cvis8CVButton7setSizeERKN2sf7Vector2IfEE @745
    _ZN4cvis8CVButton8setColorERKN2sf5ColorERKj @746
    _ZN4cvis8CVButton8setStateERKj @747
    _ZN4cvis8CVButton9setFadeInERKbRKhS4_ @748
    _ZN4cvis8CVButtonC1EPNS_6CVViewERKN2sf7Vector2IfEERKfS9_RKNSt7__cxx1112basic_stringIcSt11char_traitsIcESaIcEEERKjSJ_RKbPFvSJ_S2_E @749
    _ZN4cvis8CVButtonC1EPNS_6CVViewERKN2sf7Vector2IfEEffRKNS_9TextEntryERKNSt7__cxx1112basic_stringIcSt11char_traitsIcESaIcEEENS3_5ColorESJ_f @750
    _ZN4cvis8CVButtonC2EPNS_6CVViewERKN2sf7Vector2IfEERKfS9_RKNSt7__cxx1112basic_stringIcSt11char_traitsIcESaIcEEERKjSJ_RKbPFvSJ_S2_E @751
    _ZN4cvis8CVButtonC2EPNS_6CVViewERKN2sf7Vector2IfEEffRKNS_9TextEntryERKNSt7__cxx1112basic_stringIcSt11char_traitsIcESaIcEEENS3_5ColorESJ_f @752
    _ZN4cvis8modulateERN2sf5ImageERKNS0_5ColorE @753
    _ZN4cvis8wrapTextERN2sf4TextERKNS0_4RectIfEERKf @754
    _ZN4cvis9CVElement10getTextureERN2sf7TextureE @755
    _ZN4cvis9CVElement10lastSpriteEv @756
    _ZN4cvis9CVElement11firstSpriteEv @757
    _ZN4cvis9CVElement11sendTriggerEPS0_RKNSt7__cxx1112basic_stringIcSt11char_traitsIcESaIcEEE @758
    _ZN4cvis9CVElement11setClosableERKbPS0_ @759
    _ZN4cvis9CVElement12createShadowERKhRKf @760
    _ZN4cvis9CVElement12removeShadowEv @761
    _ZN4cvis9CVElement12sendTriggersEv @762
    _ZN4cvis9CVElement12take_triggerERKNSt7__cxx1112basic_stringIcSt11char_traitsIcESaIcEEE @763
    _ZN4cvis9CVElement12updateBoundsEv @764
    _ZN4cvis9CVElement13removeSpritesERKNSt7__cxx1112basic_stringIcSt11char_traitsIcESaIcEEE @765
    _ZN4cvis9CVElement13setDropShadowERKbRKiRKhRKN2sf7Vector2IfEESB_ @766
    _ZN4cvis9CVElement13setElasticityERKf @767
    _ZN4cvis9CVElement13setViewCursorEPKN2sf7TextureERKNS1_7Vector2IfEERKNS1_5ColorES8_ @768
    _ZN4cvis9CVElement13setViewCursorERKNSt7__cxx1112basic_stringIcSt11char_traitsIcESaIcEEERKN2sf7Vector2IfEERKNS9_5ColorESD_ @769
    _ZN4cvis9CVElement14getElementByIdERKNSt7__cxx1112basic_stringIcSt11char_traitsIcESaIcEEE @770
    _ZN4cvis9CVElement14setSpriteScaleERKf @771
    _ZN4cvis9CVElement15setDrawClippingERKb @772
    _ZN4cvis9CVElement4drawEPN2sf12RenderTargetE @773
    _ZN4cvis9CVElement4moveERKN2sf7Vector2IfEE @774
    _ZN4cvis9CVElement4pushERKfS2_S2_ @775
    _ZN4cvis9CVElement4stopEv @776
    _ZN4cvis9CVElement5speedEv @777
    _ZN4cvis9CVElement6updateERNS_7CVEventERKN2sf7Vector2IfEE @778
    _ZN4cvis9CVElement7move_toERKN2sf7Vector2IfEERKfS7_ @779
    _ZN4cvis9CVElement7setFadeERKhRKiS2_ @780
    _ZN4cvis9CVElement8setStateERKh @781
    _ZN4cvis9CVElement9addSpriteEPKN2sf7TextureERKNS1_7Vector2IfEES8_RKNS1_5ColorERKNS1_4RectIiEE @782
    _ZN4cvis9CVElement9anim_moveERKN2sf7Vector2IfEERKfS7_ @783
    _ZN4cvis9CVElement9getSpriteERKj @784
    _ZN4cvis9CVElement9highlightERKb @785
    _ZN4cvis9CVElement9setExpandERKb @786
    _ZN4cvis9CVElementC1EPNS_6CVViewEbbbb @787
    _ZN4cvis9CVElementC1Ev @788
    _ZN4cvis9CVElementC2EPNS_6CVViewEbbbb @789
    _ZN4cvis9CVElementC2Ev @790
    _ZN4cvis9CVElementD0Ev @791
    _ZN4cvis9CVElementD1Ev @792
    _ZN4cvis9CVElementD2Ev @793
    _ZN4cvis9CVTextBox11setFontSizeERKj @794
    _ZN4cvis9CVTextBox11setPositionERKN2sf7Vector2IfEE @795
    _ZN4cvis9CVTextBox11setTextSizeERKj @796
    _ZN4cvis9CVTextBox11setTextWrapERKb @797
    _ZN4cvis9CVTextBox12addTextEntryERKNS_9TextEntryERKN2sf7Vector2IfEE @798
    _ZN4cvis9CVTextBox12addTextEntryERKNS_9TextEntryEfb @799
    _ZN4cvis9CVTextBox12setTextColorERKN2sf5ColorE @800
    _ZN4cvis9CVTextBox12updateBoundsEv @801
    _ZN4cvis9CVTextBox14setTextPaddingERKf @802
    _ZN4cvis9CVTextBox16setTextAlignmentERKh @803
    _ZN4cvis9CVTextBox4drawEPN2sf12RenderTargetE @804
    _ZN4cvis9CVTextBox4moveERKN2sf7Vector2IfEE @805
    _ZN4cvis9CVTextBox6updateERNS_7CVEventERKN2sf7Vector2IfEE @806
    _ZN4cvis9CVTextBox7fitTextERKbS2_ @807
    _ZN4cvis9CVTextBox7setFontERKN2sf4FontE @808
    _ZN4cvis9CVTextBox7setFontERKNSt7__cxx1112basic_stringIcSt11char_traitsIcESaIcEEE @809
    _ZN4cvis9CVTextBox7setSizeERKN2sf7Vector2IfEE @810
    _ZN4cvis9CVTextBox7setTextERKjPKc @811
    _ZN4cvis9CVTextBox7setTextERKjPKw @812
    _ZN4cvis9CVTextBox7setTextERKjRKN2sf6StringE @813
    _ZN4cvis9CVTextBox7setTextERKjRKNSt7__cxx1112basic_stringIcSt11char_traitsIcESaIcEEE @814
    _ZN4cvis9CVTextBox8wrapTextEv @815
    _ZN4cvis9CVTextBox9alignTextEv @816
    _ZN4cvis9CVTextBox9setExpandERKb @817
    _ZN4cvis9CVTextBox9setStringERKNSt7__cxx1112basic_stringIcSt11char_traitsIcESaIcEEE @818
    _ZN4cvis9CVTextBox9setStringERKNSt7__cxx1112basic_stringIwSt11char_traitsIwESaIwEEE @819
    _ZN4cvis9CVTextBoxC1EPNS_6CVViewERKN2sf7Vector2IfEERKfS9_RKNS3_5ColorESC_S9_ @820
    _ZN4cvis9CVTextBoxC1EPNS_6CVViewERKN2sf7Vector2IfEERKfS9_RKNS_9TextEntryERKNS3_5ColorESF_S9_ @821
    _ZN4cvis9CVTextBoxC2EPNS_6CVViewERKN2sf7Vector2IfEERKfS9_RKNS3_5ColorESC_S9_ @822
    _ZN4cvis9CVTextBoxC2EPNS_6CVViewERKN2sf7Vector2IfEERKfS9_RKNS_9TextEntryERKNS3_5ColorESF_S9_ @823
    _ZN4cvis9CVTextLog11addLogEntryERKNSt7__cxx1112basic_stringIcSt11char_traitsIcESaIcEEEbf @824
    _ZN4cvis9CVTextLog11setPositionERKN2sf7Vector2IfEE @825
    _ZN4cvis9CVTextLog13editLastEntryERKNSt7__cxx1112basic_stringIcSt11char_traitsIcESaIcEEEb @826
    _ZN4cvis9CVTextLog14addToLastEntryERKNSt7__cxx1112basic_stringIcSt11char_traitsIcESaIcEEEb @827
    _ZN4cvis9CVTextLog18replaceLastMessageERKNSt7__cxx1112basic_stringIcSt11char_traitsIcESaIcEEES8_b @828
    _ZN4cvis9CVTextLog4drawEPN2sf12RenderTargetE @829
    _ZN4cvis9CVTextLog4loadEv @830
    _ZN4cvis9CVTextLog4moveERKN2sf7Vector2IfEE @831
    _ZN4cvis9CVTextLog4saveEv @832
    _ZN4cvis9CVTextLog6updateERNS_7CVEventERKN2sf7Vector2IfEE @833
    _ZN4cvis9CVTextLog7setSizeERKN2sf7Vector2IfEE @834
    _ZN4cvis9CVTextLog9shiftMsgsERKf @835
    _ZN4cvis9CVTextLogC1EPNS_6CVViewERKN2sf7Vector2IfEERKfS9_RKNS_9TextEntryERKNS3_5ColorESF_S9_RKhRKNSt7__cxx1112basic_stringIcSt11char_traitsIcESaIcEEEPNS_9CVTypeBoxE @836
    _ZN4cvis9CVTextLogC2EPNS_6CVViewERKN2sf7Vector2IfEERKfS9_RKNS_9TextEntryERKNS3_5ColorESF_S9_RKhRKNSt7__cxx1112basic_stringIcSt11char_traitsIcESaIcEEEPNS_9CVTypeBoxE @837
    _ZN4cvis9CVTextLogD0Ev @838
    _ZN4cvis9CVTextLogD1Ev @839
    _ZN4cvis9CVTextLogD2Ev @840
    _ZN4cvis9CVTypeBox11enterStringEv @841
    _ZN4cvis9CVTypeBox12setAlignmentERKh @842
    _ZN4cvis9CVTypeBox12setFillColorERKN2sf5ColorE @843
    _ZN4cvis9CVTypeBox13setTypeStringENSt7__cxx1112basic_stringIwSt11char_traitsIwESaIwEEE @844
    _ZN4cvis9CVTypeBox13setTypeStringERKNSt7__cxx1112basic_stringIcSt11char_traitsIcESaIcEEE @845
    _ZN4cvis9CVTypeBox15make_suggestionERKNSt7__cxx1112basic_stringIcSt11char_traitsIcESaIcEEE @846
    _ZN4cvis9CVTypeBox16clear_suggestionEv @847
    _ZN4cvis9CVTypeBox19setBackgroundStringERKNSt7__cxx1112basic_stringIcSt11char_traitsIcESaIcEEE @848
    _ZN4cvis9CVTypeBox4drawEPN2sf12RenderTargetE @849
    _ZN4cvis9CVTypeBox6updateERNS_7CVEventERKN2sf7Vector2IfEE @850
    _ZN4cvis9CVTypeBox7setSizeERKN2sf7Vector2IfEE @851
    _ZN4cvis9CVTypeBox7setSizeERKfS2_ @852
    _ZN4cvis9CVTypeBox8setColorERKN2sf5ColorE @853
    _ZN4cvis9CVTypeBoxC1EPNS_6CVViewERKN2sf7Vector2IfEEffRKNS_9TextEntryERKNS3_5ColorESD_fRKhSF_SF_RKf @854
    _ZN4cvis9CVTypeBoxC2EPNS_6CVViewERKN2sf7Vector2IfEEffRKNS_9TextEntryERKNS3_5ColorESD_fRKhSF_SF_RKf @855
    _ZN4cvis9CVTypeBoxD0Ev @856
    _ZN4cvis9CVTypeBoxD1Ev @857
    _ZN4cvis9CVTypeBoxD2Ev @858
    _ZN4cvis9addRecordERNS_10CVScheduleERKNSt7__cxx1112basic_stringIcSt11char_traitsIcESaIcEEERKN6hyperC9TimePointESD_RKNSA_10time_scaleERKN2sf5ColorE @859
    _ZN4cvis9alignTextERSt6vectorIN2sf4TextESaIS2_EES0_INS1_7Vector2IfEESaIS7_EE @860
    _ZN4cvis9get_angleERKN2sf7Vector2IfEES4_ @861
    _ZN4cviseqERKNS_12CVCaptureRefES2_ @862
    _ZN4cvislsERSoRKNS_16CVCalendarRecordE @863
    _ZN4cvislsERSoRKNS_6CVPlotE @864
    _ZN4cvislsERSoRKNS_7CVEventE @865
    _ZNK4cvis10CVMapPanel10zoneExistsERKNSt7__cxx1112basic_stringIcSt11char_traitsIcESaIcEEE @866
    _ZNK4cvis10CVMapPanel13pointSelectedEv @867
    _ZNK4cvis10CVMapPanel14coordsToGlobalERKN2sf7Vector2IiEE @868
    _ZNK4cvis10CVMapPanel14globalToCoordsERKN2sf7Vector2IfEE @869
    _ZNK4cvis10CVMapPanel15basePanelBoundsEv @870
    _ZNK4cvis10CVMapPanel15sectionSelectedEv @871
    _ZNK4cvis10CVMapPanel15selected_boundsEv @872
    _ZNK4cvis10CVMapPanel8getTitleB5cxx11Ev @873
    _ZNK4cvis10CVMapPanel8numZonesEv @874
    _ZNK4cvis10CVMapPanel9baseColorEv @875
    _ZNK4cvis10CVSchedule10checkMatchERKNSt7__cxx1112basic_stringIcSt11char_traitsIcESaIcEEE @876
    _ZNK4cvis10CVSchedule10getTimeTagB5cxx11ERKN6hyperC9TimePointE @877
    _ZNK4cvis10CVSchedule11getLocationERKNSt7__cxx1112basic_stringIcSt11char_traitsIcESaIcEEE @878
    _ZNK4cvis10CVSchedule12checkOverlapERKNS_16CVCalendarRecordE @879
    _ZNK4cvis10CVSchedule12checkOverlapERKS0_ @880
    _ZNK4cvis10CVSchedule13checkLocationERKNSt7__cxx1112basic_stringIcSt11char_traitsIcESaIcEEE @881
    _ZNK4cvis10CVSchedule15getLocationItemERKNSt7__cxx1112basic_stringIcSt11char_traitsIcESaIcEEE @882
    _ZNK4cvis10CVSchedule4saveERKNSt7__cxx1112basic_stringIcSt11char_traitsIcESaIcEEE @883
    _ZNK4cvis10CVSchedule8getColorERKNSt7__cxx1112basic_stringIcSt11char_traitsIcESaIcEEE @884
    _ZNK4cvis10ColorTheme10getInitialERKN2sf5ColorE @885
    _ZNK4cvis10ColorTheme10getInitialERKj @886
    _ZNK4cvis11CVGridPanel15getGridPositionERKN2sf7Vector2IiEE @887
    _ZNK4cvis11CVGridPanel15getGridPositionERKy @888
    _ZNK4cvis11CVListPanel12getSelectionB5cxx11Ev @889
    _ZNK4cvis11CVListPanel15TextEntryExistsERKNSt7__cxx1112basic_stringIcSt11char_traitsIcESaIcEEE @890
    _ZNK4cvis11CVNodePanel14lastInteractedB5cxx11Ev @891
    _ZNK4cvis11CVSliderBar15positionToValueERKN2sf7Vector2IfEE @892
    _ZNK4cvis11CVSliderBar15valueToPositionERKf @893
    _ZNK4cvis11CVSliderBar8getTitleB5cxx11Ev @894
    _ZNK4cvis11CVTypePanel20getTextElementBoundsERKj @895
    _ZNK4cvis11CVTypePanel22getTextElementPositionERKj @896
    _ZNK4cvis11CVTypePanel7getTextB5cxx11Ev @897
    _ZNK4cvis11CVTypePanel7getTextERSt6vectorINSt7__cxx1112basic_stringIcSt11char_traitsIcESaIcEEESaIS7_EE @898
    _ZNK4cvis11CVViewPanel12fadeCompleteEv @899
    _ZNK4cvis12CVDropTarget10mouse_dragEv @900
    _ZNK4cvis12ImageManager11taggedImageERKNSt7__cxx1112basic_stringIcSt11char_traitsIcESaIcEEE @901
    _ZNK4cvis12ImageManager13taggedTextureERKNSt7__cxx1112basic_stringIcSt11char_traitsIcESaIcEEE @902
    _ZNK4cvis12ImageManager14getTextureNameB5cxx11EPKN2sf7TextureE @903
    _ZNK4cvis13CVButtonPanel15getGridPositionERKN2sf7Vector2IiEE @904
    _ZNK4cvis13CVButtonPanel16checkInteractionEv @905
    _ZNK4cvis13CVButtonPanel17buttonsShareGroupEPKNS_8CVButtonES3_ @906
    _ZNK4cvis13CVButtonPanel20buttonBelongsToGroupERKN2sf7Vector2IiEE @907
    _ZNK4cvis13CVButtonPanel20getSelectedFromGroupERKNSt7__cxx1112basic_stringIcSt11char_traitsIcESaIcEEE @908
    _ZNK4cvis13CVButtonPanel9getButtonERKN2sf7Vector2IiEE @909
    _ZNK4cvis13CVDropDownBox11getSelectedB5cxx11Ev @910
    _ZNK4cvis13CVSketchPanel13CVSketchLayer12getImageSizeEv @911
    _ZNK4cvis13CVSketchPanel13CVSketchLayer15getTextureImageERN2sf5ImageE @912
    _ZNK4cvis13CVSketchPanel17viewToPixelCoordsERKN2sf7Vector2IfEE @913
    _ZNK4cvis13CVSketchPanel7canDrawEv @914
    _ZNK4cvis14CVNetworkPanel10nodeExistsERKNSt7__cxx1112basic_stringIcSt11char_traitsIcESaIcEEE @915
    _ZNK4cvis14CVNetworkPanel12getEdgeColorERKNSt7__cxx1112basic_stringIcSt11char_traitsIcESaIcEEE @916
    _ZNK4cvis14CVNetworkPanel12getNodeColorERKNSt7__cxx1112basic_stringIcSt11char_traitsIcESaIcEEE @917
    _ZNK4cvis14CVNetworkPanel16convert_to_localERKN2sf7Vector2IfEE @918
    _ZNK4cvis14CVNetworkPanel17convert_to_screenERKN2sf7Vector2IfEE @919
    _ZNK4cvis14CVNetworkPanel18getTextLegendColorERKNSt7__cxx1112basic_stringIcSt11char_traitsIcESaIcEEE @920
    _ZNK4cvis14CVNetworkPanel21getOutlineLegendColorERKNSt7__cxx1112basic_stringIcSt11char_traitsIcESaIcEEE @921
    _ZNK4cvis15CVCalendarPanel4saveERKNSt7__cxx1112basic_stringIcSt11char_traitsIcESaIcEEE @922
    _ZNK4cvis16CVCalendarRecord10diff_hoursEv @923
    _ZNK4cvis16CVCalendarRecord10diff_yearsEv @924
    _ZNK4cvis16CVCalendarRecord11diff_monthsEv @925
    _ZNK4cvis16CVCalendarRecord11getDurationEv @926
    _ZNK4cvis16CVCalendarRecord11getLocationB5cxx11Ev @927
    _ZNK4cvis16CVCalendarRecord11median_daysEv @928
    _ZNK4cvis16CVCalendarRecord12diff_minutesEv @929
    _ZNK4cvis16CVCalendarRecord12diff_secondsEv @930
    _ZNK4cvis16CVCalendarRecord12is_repeatingEv @931
    _ZNK4cvis16CVCalendarRecord12median_hoursEv @932
    _ZNK4cvis16CVCalendarRecord12median_yearsEv @933
    _ZNK4cvis16CVCalendarRecord13check_overlapERKN6hyperC9TimePointE @934
    _ZNK4cvis16CVCalendarRecord13check_overlapERKS0_ @935
    _ZNK4cvis16CVCalendarRecord13getRepeatTagsB5cxx11Ev @936
    _ZNK4cvis16CVCalendarRecord13median_monthsEv @937
    _ZNK4cvis16CVCalendarRecord14getDurationStrB5cxx11Ev @938
    _ZNK4cvis16CVCalendarRecord14median_minutesEv @939
    _ZNK4cvis16CVCalendarRecord14median_secondsEv @940
    _ZNK4cvis16CVCalendarRecord16repeat_frequencyEv @941
    _ZNK4cvis16CVCalendarRecord3endEv @942
    _ZNK4cvis16CVCalendarRecord3tagB5cxx11Ev @943
    _ZNK4cvis16CVCalendarRecord4saveEP6_iobuf @944
    _ZNK4cvis16CVCalendarRecord5colorEv @945
    _ZNK4cvis16CVCalendarRecord5startEv @946
    _ZNK4cvis16CVCalendarRecord8durationEv @947
    _ZNK4cvis16CVCalendarRecord8getScaleEv @948
    _ZNK4cvis16CVCalendarRecord9diff_daysEv @949
    _ZNK4cvis17CVDataViewerPanel10saveToFileERKNSt7__cxx1112basic_stringIcSt11char_traitsIcESaIcEEE @950
    _ZNK4cvis17CVDataViewerPanel7getDataB5cxx11ERKiS2_ @951
    _ZNK4cvis17CVDataViewerPanel7rowSizeERKi @952
    _ZNK4cvis17rounded_rectangle13getPointCountEv @953
    _ZNK4cvis17rounded_rectangle14topLeftRoundedEv @954
    _ZNK4cvis17rounded_rectangle15cornerIsRoundedERKj @955
    _ZNK4cvis17rounded_rectangle15topRightRoundedEv @956
    _ZNK4cvis17rounded_rectangle17bottomLeftRoundedEv @957
    _ZNK4cvis17rounded_rectangle18bottomRightRoundedEv @958
    _ZNK4cvis17rounded_rectangle7getSizeEv @959
    _ZNK4cvis17rounded_rectangle8getPointEy @960
    _ZNK4cvis5CVApp11getTypeFontERKNSt7__cxx1112basic_stringIcSt11char_traitsIcESaIcEEE @961
    _ZNK4cvis5CVBox11getRotationERKh @962
    _ZNK4cvis5CVBox12fadeCompleteEv @963
    _ZNK4cvis5CVBox12getFillColorEv @964
    _ZNK4cvis5CVBox15getOutlineColorEv @965
    _ZNK4cvis5CVBox17getRoundingRadiusEv @966
    _ZNK4cvis5CVBox21getRoundingPointCountEv @967
    _ZNK4cvis5CVBox8getColorEv @968
    _ZNK4cvis6CVPlot4axis16getLabelPositionERKNSt7__cxx1112basic_stringIcSt11char_traitsIcESaIcEEE @969
    _ZNK4cvis6CVPlot7Dataset13getSubsetDataERKj @970
    _ZNK4cvis6CVPlot7Dataset4sizeEv @971
    _ZNK4cvis6CVPlot7Dataset8getScaleERKj @972
    _ZNK4cvis6CVView10appTextureERKNSt7__cxx1112basic_stringIcSt11char_traitsIcESaIcEEE @973
    _ZNK4cvis6CVView11renderWidthEv @974
    _ZNK4cvis6CVView12getViewScaleEv @975
    _ZNK4cvis6CVView12renderHeightEv @976
    _ZNK4cvis6CVView17getTitleBarHeightEv @977
    _ZNK4cvis6CVView7appFontERKNSt7__cxx1112basic_stringIcSt11char_traitsIcESaIcEEE @978
    _ZNK4cvis6CVView8appColorERKNSt7__cxx1112basic_stringIcSt11char_traitsIcESaIcEEE @979
    _ZNK4cvis6CVView8appImageERKNSt7__cxx1112basic_stringIcSt11char_traitsIcESaIcEEE @980
    _ZNK4cvis6CVView9getBoundsEv @981
    _ZNK4cvis6CVView9getHeightEv @982
    _ZNK4cvis7CVBrush11getPositionEv @983
    _ZNK4cvis7CVBrush12getDrawScaleEv @984
    _ZNK4cvis7CVBrush13getDimensionsEv @985
    _ZNK4cvis7CVEvent10rightClickERKf @986
    _ZNK4cvis7CVEvent13mouseVelocityEv @987
    _ZNK4cvis7CVEvent14mouseMoveAngleEv @988
    _ZNK4cvis7CVEvent17leftClickReleasedERKf @989
    _ZNK4cvis7CVEvent18rightClickReleasedERKf @990
    _ZNK4cvis7CVEvent9leftClickERKf @991
    _ZNK4cvis9CVElement10appTextureERKNSt7__cxx1112basic_stringIcSt11char_traitsIcESaIcEEE @992
    _ZNK4cvis9CVElement10has_spriteERKNSt7__cxx1112basic_stringIcSt11char_traitsIcESaIcEEE @993
    _ZNK4cvis9CVElement12fadeCompleteEv @994
    _ZNK4cvis9CVElement14getDefaultFontB5cxx11Ev @995
    _ZNK4cvis9CVElement7appFontERKNSt7__cxx1112basic_stringIcSt11char_traitsIcESaIcEEE @996
    _ZNK4cvis9CVElement7mainAppEv @997
    _ZNK4cvis9CVElement8appColorERKNSt7__cxx1112basic_stringIcSt11char_traitsIcESaIcEEE @998
    _ZNK4cvis9CVElement8appImageERKNSt7__cxx1112basic_stringIcSt11char_traitsIcESaIcEEE @999
    _ZNK4cvis9CVElement9viewScaleEv @1000
    _ZNK4cvis9CVTextBox12fadeCompleteEv @1001
    _ZNK4cvis9CVTextBox12getTextColorEv @1002
    _ZNK4cvis9CVTextBox13getTextBoundsEv @1003
    _ZNK4cvis9CVTextBox7getTextB5cxx11Ev @1004
    _ZNK4cvis9CVTextBox8sendDataERNS_7CVEventE @1005
    _ZNK4cvis9CVTextLog13scrollOffsetYEv @1006
    _ZNK4cvis9CVTextLog14getReadableLogB5cxx11Ev @1007
    _ZNK4cvis9CVTextLog14getUserLogTextB5cxx11ERKjb @1008
    _ZNK4cvis9CVTextLog15getOtherLogTextB5cxx11ERKjb @1009
    _ZNK4cvis9CVTypeBox11can_suggestEv @1010
    _ZNK4cvis9CVTypeBox13getTypeStringB5cxx11Ev @1011
    _ZNK4cvis9CVTypeBox16string_at_cursorB5cxx11Ev @1012
    _ZNK4cvis9CVTypeBox18cursor_at_word_endEv @1013
    _ZNK4cvis9CVTypeBox20cursor_at_word_beginEv @1014
    _ZNK4cvis9CVTypeBox22cursor_string_positionEv @1015
    _ZTIN4cvis10CVHeatPlotE @1016 DATA
    _ZTIN4cvis10CVLinePlotE @1017 DATA
    _ZTIN4cvis10CVMapPanelE @1018 DATA
    _ZTIN4cvis11CVGridPanelE @1019 DATA
    _ZTIN4cvis11CVListPanelE @1020 DATA
    _ZTIN4cvis11CVNodePanelE @1021 DATA
    _ZTIN4cvis11CVPlotPanelE @1022 DATA
    _ZTIN4cvis11CVScrollBarE @1023 DATA
    _ZTIN4cvis11CVSliderBarE @1024 DATA
    _ZTIN4cvis11CVTypePanelE @1025 DATA
    _ZTIN4cvis11CVViewPanelE @1026 DATA
    _ZTIN4cvis12CVConsoleLogE @1027 DATA
    _ZTIN4cvis12CVDropTargetE @1028 DATA
    _ZTIN4cvis12CVTablePanelE @1029 DATA
    _ZTIN4cvis12CVTextLogMsgE @1030 DATA
    _ZTIN4cvis13CVButtonPanelE @1031 DATA
    _ZTIN4cvis13CVDropDownBoxE @1032 DATA
    _ZTIN4cvis13CVProgressBarE @1033 DATA
    _ZTIN4cvis13CVScatterPlotE @1034 DATA
    _ZTIN4cvis13CVSketchPanel13CVSketchLayerE @1035 DATA
    _ZTIN4cvis13CVSketchPanelE @1036 DATA
    _ZTIN4cvis13CVSwitchPanelE @1037 DATA
    _ZTIN4cvis13CVTogglePanelE @1038 DATA
    _ZTIN4cvis14CVCategoryPlotE @1039 DATA
    _ZTIN4cvis14CVNetworkPanelE @1040 DATA
    _ZTIN4cvis15CVAssemblyPanelE @1041 DATA
    _ZTIN4cvis15CVCalendarPanelE @1042 DATA
    _ZTIN4cvis16CVBasicViewPanelE @1043 DATA
    _ZTIN4cvis17CVDataViewerPanelE @1044 DATA
    _ZTIN4cvis17rounded_rectangleE @1045 DATA
    _ZTIN4cvis5CVAppE @1046 DATA
    _ZTIN4cvis5CVBoxE @1047 DATA
    _ZTIN4cvis6CVPlotE @1048 DATA
    _ZTIN4cvis6CVTextE @1049 DATA
    _ZTIN4cvis6CVViewE @1050 DATA
    _ZTIN4cvis7CVShapeE @1051 DATA
    _ZTIN4cvis8CVButtonE @1052 DATA
    _ZTIN4cvis9CVElementE @1053 DATA
    _ZTIN4cvis9CVTextBoxE @1054 DATA
    _ZTIN4cvis9CVTextLogE @1055 DATA
    _ZTVN4cvis10CVHeatPlotE @1056 DATA
    _ZTVN4cvis10CVLinePlotE @1057 DATA
    _ZTVN4cvis10CVMapPanelE @1058 DATA
    _ZTVN4cvis11CVGridPanelE @1059 DATA
    _ZTVN4cvis11CVListPanelE @1060 DATA
    _ZTVN4cvis11CVNodePanelE @1061 DATA
    _ZTVN4cvis11CVPlotPanelE @1062 DATA
    _ZTVN4cvis11CVScrollBarE @1063 DATA
    _ZTVN4cvis11CVSliderBarE @1064 DATA
    _ZTVN4cvis11CVTypePanelE @1065 DATA
    _ZTVN4cvis11CVViewPanelE @1066 DATA
    _ZTVN4cvis12CVConsoleLogE @1067 DATA
    _ZTVN4cvis12CVDropTargetE @1068 DATA
    _ZTVN4cvis12CVTablePanelE @1069 DATA
    _ZTVN4cvis12CVTextLogMsgE @1070 DATA
    _ZTVN4cvis13CVButtonPanelE @1071 DATA
    _ZTVN4cvis13CVDropDownBoxE @1072 DATA
    _ZTVN4cvis13CVProgressBarE @1073 DATA
    _ZTVN4cvis13CVScatterPlotE @1074 DATA
    _ZTVN4cvis13CVSketchPanel13CVSketchLayerE @1075 DATA
    _ZTVN4cvis13CVSketchPanelE @1076 DATA
    _ZTVN4cvis13CVSwitchPanelE @1077 DATA
    _ZTVN4cvis13CVTogglePanelE @1078 DATA
    _ZTVN4cvis14CVCategoryPlotE @1079 DATA
    _ZTVN4cvis14CVNetworkPanelE @1080 DATA
    _ZTVN4cvis15CVAssemblyPanelE @1081 DATA
    _ZTVN4cvis15CVCalendarPanelE @1082 DATA
    _ZTVN4cvis16CVBasicViewPanelE @1083 DATA
    _ZTVN4cvis17CVDataViewerPanelE @1084 DATA
    _ZTVN4cvis17rounded_rectangleE @1085 DATA
    _ZTVN4cvis5CVAppE @1086 DATA
    _ZTVN4cvis5CVBoxE @1087 DATA
    _ZTVN4cvis6CVPlotE @1088 DATA
    _ZTVN4cvis6CVTextE @1089 DATA
    _ZTVN4cvis6CVViewE @1090 DATA
    _ZTVN4cvis7CVShapeE @1091 DATA
    _ZTVN4cvis8CVButtonE @1092 DATA
    _ZTVN4cvis9CVElementE @1093 DATA
    _ZTVN4cvis9CVTextBoxE @1094 DATA
    _ZTVN4cvis9CVTextLogE @1095 DATA
    _ZThn8_N4cvis13CVSketchPanel13CVSketchLayerD0Ev @1096
    _ZThn8_N4cvis13CVSketchPanel13CVSketchLayerD1Ev @1097
    _ZThn8_N4cvis17rounded_rectangleD0Ev @1098
    _ZThn8_N4cvis17rounded_rectangleD1Ev @1099
